(dp0
S'bpic2017'
p1
(dp2
S'prefix_agg'
p3
(dp4
S'rf'
p5
(dp6
I1
(dp7
S'n_estimators'
p8
I300
sS'max_features'
p9
F0.5
sS'n_clusters'
p10
I1
ssI2
(dp11
g8
I300
sg9
S'sqrt'
p12
sg10
I1
ssI3
(dp13
g8
I300
sg9
F0.1
sg10
I1
ssI4
(dp14
g8
I300
sg9
F0.25
sg10
I1
ssI5
(dp15
g8
I300
sg9
F0.25
sg10
I1
ssI6
(dp16
g8
I300
sg9
F0.25
sg10
I1
ssI7
(dp17
g8
I300
sg9
F0.25
sg10
I1
ssI8
(dp18
g8
I300
sg9
F0.25
sg10
I1
ssI9
(dp19
g8
I300
sg9
F0.25
sg10
I1
ssI10
(dp20
g8
I300
sg9
F0.5
sg10
I1
ssI11
(dp21
g8
I300
sg9
F0.25
sg10
I1
ssI12
(dp22
g8
I300
sg9
F0.25
sg10
I1
ssI13
(dp23
g8
I300
sg9
F0.75
sg10
I1
ssI14
(dp24
g8
I300
sg9
F0.75
sg10
I1
ssI15
(dp25
g8
I300
sg9
F0.75
sg10
I1
ssI16
(dp26
g8
I300
sg9
F0.75
sg10
I1
ssI17
(dp27
g8
I300
sg9
F0.75
sg10
I1
ssI18
(dp28
g8
I300
sg9
F0.75
sg10
I1
ssI19
(dp29
g8
I300
sg9
F0.75
sg10
I1
ssI20
(dp30
g8
I300
sg9
F0.75
sg10
I1
ssssS'single_combined'
p31
(dp32
g5
(dp33
g8
I300
sg9
F0.25
sg10
I1
sssS'prefix_combined'
p34
(dp35
g5
(dp36
I1
(dp37
g8
I300
sg9
F0.75
sg10
I1
ssI2
(dp38
g8
I300
sg9
F0.05
sg10
I1
ssI3
(dp39
g8
I300
sg9
g12
sg10
I1
ssI4
(dp40
g8
I300
sg9
g12
sg10
I1
ssI5
(dp41
g8
I300
sg9
F0.1
sg10
I1
ssI6
(dp42
g8
I300
sg9
F0.25
sg10
I1
ssI7
(dp43
g8
I300
sg9
F0.25
sg10
I1
ssI8
(dp44
g8
I300
sg9
F0.25
sg10
I1
ssI9
(dp45
g8
I300
sg9
F0.25
sg10
I1
ssI10
(dp46
g8
I300
sg9
F0.25
sg10
I1
ssI11
(dp47
g8
I300
sg9
F0.25
sg10
I1
ssI12
(dp48
g8
I300
sg9
F0.1
sg10
I1
ssI13
(dp49
g8
I300
sg9
F0.25
sg10
I1
ssI14
(dp50
g8
I300
sg9
F0.75
sg10
I1
ssI15
(dp51
g8
I300
sg9
F0.75
sg10
I1
ssI16
(dp52
g8
I300
sg9
F0.75
sg10
I1
ssI17
(dp53
g8
I300
sg9
F0.75
sg10
I1
ssI18
(dp54
g8
I300
sg9
F0.75
sg10
I1
ssI19
(dp55
g8
I300
sg9
F0.75
sg10
I1
ssI20
(dp56
g8
I300
sg9
F0.75
sg10
I1
ssssS'single_agg'
p57
(dp58
g5
(dp59
g8
I300
sg9
F0.25
sg10
I1
sssS'prefix_index'
p60
(dp61
g5
(dp62
I1
(dp63
g8
I300
sg9
g12
sg10
I1
ssI2
(dp64
g8
I300
sg9
F0.1
sg10
I1
ssI3
(dp65
g8
I300
sg9
F0.25
sg10
I1
ssI4
(dp66
g8
I300
sg9
F0.25
sg10
I1
ssI5
(dp67
g8
I300
sg9
F0.25
sg10
I1
ssI6
(dp68
g8
I300
sg9
F0.25
sg10
I1
ssI7
(dp69
g8
I300
sg9
F0.25
sg10
I1
ssI8
(dp70
g8
I300
sg9
F0.5
sg10
I1
ssI9
(dp71
g8
I300
sg9
F0.25
sg10
I1
ssI10
(dp72
g8
I300
sg9
F0.25
sg10
I1
ssI11
(dp73
g8
I300
sg9
F0.25
sg10
I1
ssI12
(dp74
g8
I300
sg9
F0.25
sg10
I1
ssI13
(dp75
g8
I300
sg9
F0.5
sg10
I1
ssI14
(dp76
g8
I300
sg9
F0.5
sg10
I1
ssI15
(dp77
g8
I300
sg9
F0.5
sg10
I1
ssI16
(dp78
g8
I300
sg9
F0.5
sg10
I1
ssI17
(dp79
g8
I300
sg9
F0.5
sg10
I1
ssI18
(dp80
g8
I300
sg9
F0.5
sg10
I1
ssI19
(dp81
g8
I300
sg9
F0.5
sg10
I1
ssI20
(dp82
g8
I300
sg9
F0.75
sg10
I1
ssssS'single_index'
p83
(dp84
g5
(dp85
g8
I300
sg9
F0.25
sg10
I1
sssS'single_laststate'
p86
(dp87
g5
(dp88
g8
I300
sg9
g12
sg10
I1
sssS'prefix_laststate'
p89
(dp90
g5
(dp91
I1
(dp92
g8
I300
sg9
g12
sg10
I1
ssI2
(dp93
g8
I300
sg9
g12
sg10
I1
ssI3
(dp94
g8
I300
sg9
F0.1
sg10
I1
ssI4
(dp95
g8
I300
sg9
F0.25
sg10
I1
ssI5
(dp96
g8
I300
sg9
g12
sg10
I1
ssI6
(dp97
g8
I300
sg9
F0.25
sg10
I1
ssI7
(dp98
g8
I300
sg9
F0.25
sg10
I1
ssI8
(dp99
g8
I300
sg9
F0.25
sg10
I1
ssI9
(dp100
g8
I300
sg9
g12
sg10
I1
ssI10
(dp101
g8
I300
sg9
g12
sg10
I1
ssI11
(dp102
g8
I300
sg9
F0.25
sg10
I1
ssI12
(dp103
g8
I300
sg9
F0.25
sg10
I1
ssI13
(dp104
g8
I300
sg9
F0.25
sg10
I1
ssI14
(dp105
g8
I300
sg9
F0.25
sg10
I1
ssI15
(dp106
g8
I300
sg9
F0.25
sg10
I1
ssI16
(dp107
g8
I300
sg9
F0.25
sg10
I1
ssI17
(dp108
g8
I300
sg9
F0.25
sg10
I1
ssI18
(dp109
g8
I300
sg9
F0.25
sg10
I1
ssI19
(dp110
g8
I300
sg9
F0.25
sg10
I1
ssI20
(dp111
g8
I300
sg9
F0.25
sg10
I1
sssssS'bpic2015_4_f2'
p112
(dp113
g3
(dp114
g5
(dp115
I1
(dp116
g8
I300
sg9
F0.05
sg10
I1
ssI2
(dp117
g8
I300
sg9
g12
sg10
I1
ssI3
(dp118
g8
I300
sg9
g12
sg10
I1
ssI4
(dp119
g8
I300
sg9
F0.25
sg10
I1
ssI5
(dp120
g8
I300
sg9
g12
sg10
I1
ssI6
(dp121
g8
I300
sg9
F0.1
sg10
I1
ssI7
(dp122
g8
I300
sg9
g12
sg10
I1
ssI8
(dp123
g8
I300
sg9
g12
sg10
I1
ssI9
(dp124
g8
I300
sg9
F0.05
sg10
I1
ssI10
(dp125
g8
I300
sg9
F0.5
sg10
I1
ssI11
(dp126
g8
I300
sg9
F0.5
sg10
I1
ssI12
(dp127
g8
I300
sg9
F0.5
sg10
I1
ssI13
(dp128
g8
I300
sg9
F0.25
sg10
I1
ssI14
(dp129
g8
I300
sg9
F0.05
sg10
I1
ssI15
(dp130
g8
I300
sg9
F0.25
sg10
I1
ssI16
(dp131
g8
I300
sg9
F0.5
sg10
I1
ssI17
(dp132
g8
I300
sg9
F0.5
sg10
I1
ssI18
(dp133
g8
I300
sg9
F0.75
sg10
I1
ssI19
(dp134
g8
I300
sg9
F0.5
sg10
I1
ssI20
(dp135
g8
I300
sg9
F0.75
sg10
I1
ssssg31
(dp136
g5
(dp137
g8
I300
sg9
g12
sg10
I1
sssg34
(dp138
g5
(dp139
I1
(dp140
g8
I300
sg9
F0.1
sg10
I1
ssI2
(dp141
g8
I300
sg9
F0.25
sg10
I1
ssI3
(dp142
g8
I300
sg9
F0.25
sg10
I1
ssI4
(dp143
g8
I300
sg9
F0.25
sg10
I1
ssI5
(dp144
g8
I300
sg9
F0.05
sg10
I1
ssI6
(dp145
g8
I300
sg9
F0.05
sg10
I1
ssI7
(dp146
g8
I300
sg9
F0.1
sg10
I1
ssI8
(dp147
g8
I300
sg9
F0.1
sg10
I1
ssI9
(dp148
g8
I300
sg9
F0.05
sg10
I1
ssI10
(dp149
g8
I300
sg9
F0.5
sg10
I1
ssI11
(dp150
g8
I300
sg9
F0.75
sg10
I1
ssI12
(dp151
g8
I300
sg9
F0.25
sg10
I1
ssI13
(dp152
g8
I300
sg9
F0.25
sg10
I1
ssI14
(dp153
g8
I300
sg9
F0.05
sg10
I1
ssI15
(dp154
g8
I300
sg9
F0.25
sg10
I1
ssI16
(dp155
g8
I300
sg9
F0.5
sg10
I1
ssI17
(dp156
g8
I300
sg9
F0.75
sg10
I1
ssI18
(dp157
g8
I300
sg9
F0.25
sg10
I1
ssI19
(dp158
g8
I300
sg9
F0.75
sg10
I1
ssI20
(dp159
g8
I300
sg9
F0.75
sg10
I1
ssssg57
(dp160
g5
(dp161
g8
I300
sg9
F0.05
sg10
I1
sssg60
(dp162
g5
(dp163
I1
(dp164
g8
I300
sg9
F0.05
sg10
I1
ssI2
(dp165
g8
I300
sg9
F0.1
sg10
I1
ssI3
(dp166
g8
I300
sg9
F0.1
sg10
I1
ssI4
(dp167
g8
I300
sg9
F0.1
sg10
I1
ssI5
(dp168
g8
I300
sg9
F0.25
sg10
I1
ssI6
(dp169
g8
I300
sg9
F0.25
sg10
I1
ssI7
(dp170
g8
I300
sg9
F0.25
sg10
I1
ssI8
(dp171
g8
I300
sg9
F0.25
sg10
I1
ssI9
(dp172
g8
I300
sg9
F0.1
sg10
I1
ssI10
(dp173
g8
I300
sg9
F0.25
sg10
I1
ssI11
(dp174
g8
I300
sg9
F0.25
sg10
I1
ssI12
(dp175
g8
I300
sg9
F0.25
sg10
I1
ssI13
(dp176
g8
I300
sg9
F0.1
sg10
I1
ssI14
(dp177
g8
I300
sg9
F0.1
sg10
I1
ssI15
(dp178
g8
I300
sg9
F0.75
sg10
I1
ssI16
(dp179
g8
I300
sg9
F0.75
sg10
I1
ssI17
(dp180
g8
I300
sg9
F0.75
sg10
I1
ssI18
(dp181
g8
I300
sg9
F0.5
sg10
I1
ssI19
(dp182
g8
I300
sg9
F0.25
sg10
I1
ssI20
(dp183
g8
I300
sg9
F0.5
sg10
I1
ssssg83
(dp184
g5
(dp185
g8
I300
sg9
g12
sg10
I1
sssg86
(dp186
g5
(dp187
g8
I300
sg9
F0.05
sg10
I1
sssg89
(dp188
g5
(dp189
I1
(dp190
g8
I300
sg9
F0.05
sg10
I1
ssI2
(dp191
g8
I300
sg9
g12
sg10
I1
ssI3
(dp192
g8
I300
sg9
F0.25
sg10
I1
ssI4
(dp193
g8
I300
sg9
F0.25
sg10
I1
ssI5
(dp194
g8
I300
sg9
g12
sg10
I1
ssI6
(dp195
g8
I300
sg9
F0.05
sg10
I1
ssI7
(dp196
g8
I300
sg9
g12
sg10
I1
ssI8
(dp197
g8
I300
sg9
F0.1
sg10
I1
ssI9
(dp198
g8
I300
sg9
F0.25
sg10
I1
ssI10
(dp199
g8
I300
sg9
F0.25
sg10
I1
ssI11
(dp200
g8
I300
sg9
F0.5
sg10
I1
ssI12
(dp201
g8
I300
sg9
F0.25
sg10
I1
ssI13
(dp202
g8
I300
sg9
F0.25
sg10
I1
ssI14
(dp203
g8
I300
sg9
F0.05
sg10
I1
ssI15
(dp204
g8
I300
sg9
F0.5
sg10
I1
ssI16
(dp205
g8
I300
sg9
F0.75
sg10
I1
ssI17
(dp206
g8
I300
sg9
F0.75
sg10
I1
ssI18
(dp207
g8
I300
sg9
F0.25
sg10
I1
ssI19
(dp208
g8
I300
sg9
F0.5
sg10
I1
ssI20
(dp209
g8
I300
sg9
F0.5
sg10
I1
sssssS'bpic2015_1_f2'
p210
(dp211
g3
(dp212
g5
(dp213
I1
(dp214
g8
I300
sg9
F0.75
sg10
I1
ssI2
(dp215
g8
I300
sg9
F0.5
sg10
I1
ssI3
(dp216
g8
I300
sg9
F0.75
sg10
I1
ssI4
(dp217
g8
I300
sg9
F0.75
sg10
I1
ssI5
(dp218
g8
I300
sg9
F0.5
sg10
I1
ssI6
(dp219
g8
I300
sg9
F0.5
sg10
I1
ssI7
(dp220
g8
I300
sg9
F0.5
sg10
I1
ssI8
(dp221
g8
I300
sg9
F0.75
sg10
I1
ssI9
(dp222
g8
I300
sg9
F0.25
sg10
I1
ssI10
(dp223
g8
I300
sg9
F0.75
sg10
I1
ssI11
(dp224
g8
I300
sg9
F0.5
sg10
I1
ssI12
(dp225
g8
I300
sg9
F0.25
sg10
I1
ssI13
(dp226
g8
I300
sg9
F0.75
sg10
I1
ssI14
(dp227
g8
I300
sg9
F0.5
sg10
I1
ssI15
(dp228
g8
I300
sg9
F0.75
sg10
I1
ssI16
(dp229
g8
I300
sg9
F0.25
sg10
I1
ssI17
(dp230
g8
I300
sg9
F0.75
sg10
I1
ssI18
(dp231
g8
I300
sg9
F0.25
sg10
I1
ssI19
(dp232
g8
I300
sg9
F0.75
sg10
I1
ssI20
(dp233
g8
I300
sg9
F0.5
sg10
I1
ssssg31
(dp234
g5
(dp235
g8
I300
sg9
F0.5
sg10
I1
sssg34
(dp236
g5
(dp237
I1
(dp238
g8
I300
sg9
F0.75
sg10
I1
ssI2
(dp239
g8
I300
sg9
F0.75
sg10
I1
ssI3
(dp240
g8
I300
sg9
F0.75
sg10
I1
ssI4
(dp241
g8
I300
sg9
F0.75
sg10
I1
ssI5
(dp242
g8
I300
sg9
F0.75
sg10
I1
ssI6
(dp243
g8
I300
sg9
F0.25
sg10
I1
ssI7
(dp244
g8
I300
sg9
g12
sg10
I1
ssI8
(dp245
g8
I300
sg9
F0.5
sg10
I1
ssI9
(dp246
g8
I300
sg9
F0.5
sg10
I1
ssI10
(dp247
g8
I300
sg9
F0.25
sg10
I1
ssI11
(dp248
g8
I300
sg9
F0.75
sg10
I1
ssI12
(dp249
g8
I300
sg9
F0.75
sg10
I1
ssI13
(dp250
g8
I300
sg9
F0.75
sg10
I1
ssI14
(dp251
g8
I300
sg9
F0.5
sg10
I1
ssI15
(dp252
g8
I300
sg9
F0.75
sg10
I1
ssI16
(dp253
g8
I300
sg9
F0.1
sg10
I1
ssI17
(dp254
g8
I300
sg9
F0.5
sg10
I1
ssI18
(dp255
g8
I300
sg9
F0.25
sg10
I1
ssI19
(dp256
g8
I300
sg9
F0.5
sg10
I1
ssI20
(dp257
g8
I300
sg9
F0.1
sg10
I1
ssssg57
(dp258
g5
(dp259
g8
I300
sg9
F0.5
sg10
I1
sssg60
(dp260
g5
(dp261
I1
(dp262
g8
I300
sg9
F0.5
sg10
I1
ssI2
(dp263
g8
I300
sg9
F0.5
sg10
I1
ssI3
(dp264
g8
I300
sg9
F0.75
sg10
I1
ssI4
(dp265
g8
I300
sg9
F0.75
sg10
I1
ssI5
(dp266
g8
I300
sg9
F0.75
sg10
I1
ssI6
(dp267
g8
I300
sg9
F0.75
sg10
I1
ssI7
(dp268
g8
I300
sg9
F0.25
sg10
I1
ssI8
(dp269
g8
I300
sg9
F0.1
sg10
I1
ssI9
(dp270
g8
I300
sg9
F0.1
sg10
I1
ssI10
(dp271
g8
I300
sg9
F0.05
sg10
I1
ssI11
(dp272
g8
I300
sg9
F0.1
sg10
I1
ssI12
(dp273
g8
I300
sg9
F0.25
sg10
I1
ssI13
(dp274
g8
I300
sg9
F0.5
sg10
I1
ssI14
(dp275
g8
I300
sg9
F0.25
sg10
I1
ssI15
(dp276
g8
I300
sg9
F0.5
sg10
I1
ssI16
(dp277
g8
I300
sg9
F0.75
sg10
I1
ssI17
(dp278
g8
I300
sg9
F0.05
sg10
I1
ssI18
(dp279
g8
I300
sg9
F0.05
sg10
I1
ssI19
(dp280
g8
I300
sg9
F0.75
sg10
I1
ssI20
(dp281
g8
I300
sg9
F0.5
sg10
I1
ssssg83
(dp282
g5
(dp283
g8
I300
sg9
F0.75
sg10
I1
sssg86
(dp284
g5
(dp285
g8
I300
sg9
F0.25
sg10
I1
sssg89
(dp286
g5
(dp287
I1
(dp288
g8
I300
sg9
F0.5
sg10
I1
ssI2
(dp289
g8
I300
sg9
F0.5
sg10
I1
ssI3
(dp290
g8
I300
sg9
F0.75
sg10
I1
ssI4
(dp291
g8
I300
sg9
F0.75
sg10
I1
ssI5
(dp292
g8
I300
sg9
F0.25
sg10
I1
ssI6
(dp293
g8
I300
sg9
F0.75
sg10
I1
ssI7
(dp294
g8
I300
sg9
g12
sg10
I1
ssI8
(dp295
g8
I300
sg9
F0.5
sg10
I1
ssI9
(dp296
g8
I300
sg9
F0.25
sg10
I1
ssI10
(dp297
g8
I300
sg9
F0.5
sg10
I1
ssI11
(dp298
g8
I300
sg9
F0.25
sg10
I1
ssI12
(dp299
g8
I300
sg9
F0.25
sg10
I1
ssI13
(dp300
g8
I300
sg9
F0.25
sg10
I1
ssI14
(dp301
g8
I300
sg9
F0.1
sg10
I1
ssI15
(dp302
g8
I300
sg9
F0.75
sg10
I1
ssI16
(dp303
g8
I300
sg9
F0.25
sg10
I1
ssI17
(dp304
g8
I300
sg9
F0.25
sg10
I1
ssI18
(dp305
g8
I300
sg9
F0.5
sg10
I1
ssI19
(dp306
g8
I300
sg9
F0.25
sg10
I1
ssI20
(dp307
g8
I300
sg9
F0.5
sg10
I1
sssssS'sepsis'
p308
(dp309
g3
(dp310
g5
(dp311
I1
(dp312
g8
I300
sg9
F0.05
sg10
I1
ssI2
(dp313
g8
I300
sg9
F0.05
sg10
I1
ssI3
(dp314
g8
I300
sg9
F0.05
sg10
I1
ssI4
(dp315
g8
I300
sg9
F0.5
sg10
I1
ssI5
(dp316
g8
I300
sg9
F0.5
sg10
I1
ssI6
(dp317
g8
I300
sg9
F0.25
sg10
I1
ssssg31
(dp318
g5
(dp319
g8
I300
sg9
F0.05
sg10
I1
sssg34
(dp320
g5
(dp321
I1
(dp322
g8
I300
sg9
F0.05
sg10
I1
ssI2
(dp323
g8
I300
sg9
F0.05
sg10
I1
ssI3
(dp324
g8
I300
sg9
F0.05
sg10
I1
ssI4
(dp325
g8
I300
sg9
F0.5
sg10
I1
ssI5
(dp326
g8
I300
sg9
F0.5
sg10
I1
ssI6
(dp327
g8
I300
sg9
F0.25
sg10
I1
ssssg57
(dp328
g5
(dp329
g8
I300
sg9
F0.1
sg10
I1
sssg60
(dp330
g5
(dp331
I1
(dp332
g8
I300
sg9
g12
sg10
I1
ssI2
(dp333
g8
I300
sg9
F0.05
sg10
I1
ssI3
(dp334
g8
I300
sg9
g12
sg10
I1
ssI4
(dp335
g8
I300
sg9
F0.05
sg10
I1
ssI5
(dp336
g8
I300
sg9
g12
sg10
I1
ssI6
(dp337
g8
I300
sg9
F0.5
sg10
I1
ssssg83
(dp338
g5
(dp339
g8
I300
sg9
F0.05
sg10
I1
sssg86
(dp340
g5
(dp341
g8
I300
sg9
g12
sg10
I1
sssg89
(dp342
g5
(dp343
I1
(dp344
g8
I300
sg9
g12
sg10
I1
ssI2
(dp345
g8
I300
sg9
g12
sg10
I1
ssI3
(dp346
g8
I300
sg9
F0.05
sg10
I1
ssI4
(dp347
g8
I300
sg9
F0.05
sg10
I1
ssI5
(dp348
g8
I300
sg9
F0.05
sg10
I1
ssI6
(dp349
g8
I300
sg9
F0.75
sg10
I1
sssssS'bpic2015_5_f2'
p350
(dp351
g3
(dp352
g5
(dp353
I1
(dp354
g8
I300
sg9
g12
sg10
I1
ssI2
(dp355
g8
I300
sg9
F0.25
sg10
I1
ssI3
(dp356
g8
I300
sg9
g12
sg10
I1
ssI4
(dp357
g8
I300
sg9
F0.1
sg10
I1
ssI5
(dp358
g8
I300
sg9
F0.1
sg10
I1
ssI6
(dp359
g8
I300
sg9
F0.25
sg10
I1
ssI7
(dp360
g8
I300
sg9
F0.25
sg10
I1
ssI8
(dp361
g8
I300
sg9
F0.25
sg10
I1
ssI9
(dp362
g8
I300
sg9
F0.5
sg10
I1
ssI10
(dp363
g8
I300
sg9
F0.25
sg10
I1
ssI11
(dp364
g8
I300
sg9
F0.25
sg10
I1
ssI12
(dp365
g8
I300
sg9
F0.5
sg10
I1
ssI13
(dp366
g8
I300
sg9
F0.5
sg10
I1
ssI14
(dp367
g8
I300
sg9
F0.1
sg10
I1
ssI15
(dp368
g8
I300
sg9
F0.1
sg10
I1
ssI16
(dp369
g8
I300
sg9
g12
sg10
I1
ssI17
(dp370
g8
I300
sg9
g12
sg10
I1
ssI18
(dp371
g8
I300
sg9
F0.05
sg10
I1
ssI19
(dp372
g8
I300
sg9
F0.05
sg10
I1
ssI20
(dp373
g8
I300
sg9
g12
sg10
I1
ssssg31
(dp374
g5
(dp375
g8
I300
sg9
F0.1
sg10
I1
sssg34
(dp376
g5
(dp377
I1
(dp378
g8
I300
sg9
F0.25
sg10
I1
ssI2
(dp379
g8
I300
sg9
F0.25
sg10
I1
ssI3
(dp380
g8
I300
sg9
F0.25
sg10
I1
ssI4
(dp381
g8
I300
sg9
F0.1
sg10
I1
ssI5
(dp382
g8
I300
sg9
F0.25
sg10
I1
ssI6
(dp383
g8
I300
sg9
g12
sg10
I1
ssI7
(dp384
g8
I300
sg9
F0.75
sg10
I1
ssI8
(dp385
g8
I300
sg9
F0.1
sg10
I1
ssI9
(dp386
g8
I300
sg9
F0.25
sg10
I1
ssI10
(dp387
g8
I300
sg9
F0.25
sg10
I1
ssI11
(dp388
g8
I300
sg9
F0.25
sg10
I1
ssI12
(dp389
g8
I300
sg9
F0.25
sg10
I1
ssI13
(dp390
g8
I300
sg9
F0.75
sg10
I1
ssI14
(dp391
g8
I300
sg9
F0.1
sg10
I1
ssI15
(dp392
g8
I300
sg9
F0.05
sg10
I1
ssI16
(dp393
g8
I300
sg9
F0.1
sg10
I1
ssI17
(dp394
g8
I300
sg9
F0.05
sg10
I1
ssI18
(dp395
g8
I300
sg9
g12
sg10
I1
ssI19
(dp396
g8
I300
sg9
F0.05
sg10
I1
ssI20
(dp397
g8
I300
sg9
F0.05
sg10
I1
ssssg57
(dp398
g5
(dp399
g8
I300
sg9
g12
sg10
I1
sssg60
(dp400
g5
(dp401
I1
(dp402
g8
I300
sg9
F0.1
sg10
I1
ssI2
(dp403
g8
I300
sg9
F0.1
sg10
I1
ssI3
(dp404
g8
I300
sg9
g12
sg10
I1
ssI4
(dp405
g8
I300
sg9
F0.5
sg10
I1
ssI5
(dp406
g8
I300
sg9
F0.75
sg10
I1
ssI6
(dp407
g8
I300
sg9
F0.1
sg10
I1
ssI7
(dp408
g8
I300
sg9
F0.1
sg10
I1
ssI8
(dp409
g8
I300
sg9
F0.25
sg10
I1
ssI9
(dp410
g8
I300
sg9
F0.25
sg10
I1
ssI10
(dp411
g8
I300
sg9
F0.1
sg10
I1
ssI11
(dp412
g8
I300
sg9
F0.25
sg10
I1
ssI12
(dp413
g8
I300
sg9
F0.25
sg10
I1
ssI13
(dp414
g8
I300
sg9
F0.1
sg10
I1
ssI14
(dp415
g8
I300
sg9
F0.25
sg10
I1
ssI15
(dp416
g8
I300
sg9
F0.1
sg10
I1
ssI16
(dp417
g8
I300
sg9
F0.25
sg10
I1
ssI17
(dp418
g8
I300
sg9
F0.25
sg10
I1
ssI18
(dp419
g8
I300
sg9
F0.05
sg10
I1
ssI19
(dp420
g8
I300
sg9
F0.1
sg10
I1
ssI20
(dp421
g8
I300
sg9
g12
sg10
I1
ssssg83
(dp422
g5
(dp423
g8
I300
sg9
F0.05
sg10
I1
sssg86
(dp424
g5
(dp425
g8
I300
sg9
F0.05
sg10
I1
sssg89
(dp426
g5
(dp427
I1
(dp428
g8
I300
sg9
F0.1
sg10
I1
ssI2
(dp429
g8
I300
sg9
F0.25
sg10
I1
ssI3
(dp430
g8
I300
sg9
F0.25
sg10
I1
ssI4
(dp431
g8
I300
sg9
F0.05
sg10
I1
ssI5
(dp432
g8
I300
sg9
F0.25
sg10
I1
ssI6
(dp433
g8
I300
sg9
F0.1
sg10
I1
ssI7
(dp434
g8
I300
sg9
F0.1
sg10
I1
ssI8
(dp435
g8
I300
sg9
g12
sg10
I1
ssI9
(dp436
g8
I300
sg9
g12
sg10
I1
ssI10
(dp437
g8
I300
sg9
g12
sg10
I1
ssI11
(dp438
g8
I300
sg9
F0.25
sg10
I1
ssI12
(dp439
g8
I300
sg9
F0.1
sg10
I1
ssI13
(dp440
g8
I300
sg9
F0.25
sg10
I1
ssI14
(dp441
g8
I300
sg9
g12
sg10
I1
ssI15
(dp442
g8
I300
sg9
F0.1
sg10
I1
ssI16
(dp443
g8
I300
sg9
g12
sg10
I1
ssI17
(dp444
g8
I300
sg9
F0.1
sg10
I1
ssI18
(dp445
g8
I300
sg9
g12
sg10
I1
ssI19
(dp446
g8
I300
sg9
g12
sg10
I1
ssI20
(dp447
g8
I300
sg9
F0.25
sg10
I1
sssssS'bpic2011_f1'
p448
(dp449
g3
(dp450
g5
(dp451
I1
(dp452
g8
I300
sg9
F0.75
sg10
I1
ssI2
(dp453
g8
I300
sg9
F0.75
sg10
I1
ssI3
(dp454
g8
I300
sg9
F0.75
sg10
I1
ssI4
(dp455
g8
I300
sg9
F0.75
sg10
I1
ssI5
(dp456
g8
I300
sg9
F0.75
sg10
I1
ssI6
(dp457
g8
I300
sg9
F0.75
sg10
I1
ssI7
(dp458
g8
I300
sg9
F0.75
sg10
I1
ssI8
(dp459
g8
I300
sg9
F0.75
sg10
I1
ssI9
(dp460
g8
I300
sg9
F0.75
sg10
I1
ssI10
(dp461
g8
I300
sg9
F0.75
sg10
I1
ssI11
(dp462
g8
I300
sg9
F0.75
sg10
I1
ssI12
(dp463
g8
I300
sg9
F0.75
sg10
I1
ssI13
(dp464
g8
I300
sg9
F0.75
sg10
I1
ssI14
(dp465
g8
I300
sg9
F0.75
sg10
I1
ssI15
(dp466
g8
I300
sg9
F0.75
sg10
I1
ssI16
(dp467
g8
I300
sg9
F0.75
sg10
I1
ssI17
(dp468
g8
I300
sg9
F0.75
sg10
I1
ssI18
(dp469
g8
I300
sg9
F0.75
sg10
I1
ssI19
(dp470
g8
I300
sg9
F0.75
sg10
I1
ssI20
(dp471
g8
I300
sg9
F0.75
sg10
I1
ssssg31
(dp472
g5
(dp473
g8
I300
sg9
F0.75
sg10
I1
sssg34
(dp474
g5
(dp475
I1
(dp476
g8
I300
sg9
F0.75
sg10
I1
ssI2
(dp477
g8
I300
sg9
F0.75
sg10
I1
ssI3
(dp478
g8
I300
sg9
F0.75
sg10
I1
ssI4
(dp479
g8
I300
sg9
F0.5
sg10
I1
ssI5
(dp480
g8
I300
sg9
F0.75
sg10
I1
ssI6
(dp481
g8
I300
sg9
F0.75
sg10
I1
ssI7
(dp482
g8
I300
sg9
F0.75
sg10
I1
ssI8
(dp483
g8
I300
sg9
F0.75
sg10
I1
ssI9
(dp484
g8
I300
sg9
F0.75
sg10
I1
ssI10
(dp485
g8
I300
sg9
F0.75
sg10
I1
ssI11
(dp486
g8
I300
sg9
F0.75
sg10
I1
ssI12
(dp487
g8
I300
sg9
F0.75
sg10
I1
ssI13
(dp488
g8
I300
sg9
F0.75
sg10
I1
ssI14
(dp489
g8
I300
sg9
F0.75
sg10
I1
ssI15
(dp490
g8
I300
sg9
F0.75
sg10
I1
ssI16
(dp491
g8
I300
sg9
F0.75
sg10
I1
ssI17
(dp492
g8
I300
sg9
F0.75
sg10
I1
ssI18
(dp493
g8
I300
sg9
F0.75
sg10
I1
ssI19
(dp494
g8
I300
sg9
F0.75
sg10
I1
ssI20
(dp495
g8
I300
sg9
F0.75
sg10
I1
ssssg57
(dp496
g5
(dp497
g8
I300
sg9
F0.75
sg10
I1
sssg60
(dp498
g5
(dp499
I1
(dp500
g8
I300
sg9
F0.5
sg10
I1
ssI2
(dp501
g8
I300
sg9
F0.75
sg10
I1
ssI3
(dp502
g8
I300
sg9
F0.75
sg10
I1
ssI4
(dp503
g8
I300
sg9
F0.75
sg10
I1
ssI5
(dp504
g8
I300
sg9
F0.75
sg10
I1
ssI6
(dp505
g8
I300
sg9
F0.5
sg10
I1
ssI7
(dp506
g8
I300
sg9
F0.5
sg10
I1
ssI8
(dp507
g8
I300
sg9
F0.5
sg10
I1
ssI9
(dp508
g8
I300
sg9
F0.75
sg10
I1
ssI10
(dp509
g8
I300
sg9
F0.75
sg10
I1
ssI11
(dp510
g8
I300
sg9
F0.75
sg10
I1
ssI12
(dp511
g8
I300
sg9
F0.75
sg10
I1
ssI13
(dp512
g8
I300
sg9
F0.75
sg10
I1
ssI14
(dp513
g8
I300
sg9
F0.5
sg10
I1
ssI15
(dp514
g8
I300
sg9
F0.75
sg10
I1
ssI16
(dp515
g8
I300
sg9
F0.75
sg10
I1
ssI17
(dp516
g8
I300
sg9
F0.75
sg10
I1
ssI18
(dp517
g8
I300
sg9
F0.75
sg10
I1
ssI19
(dp518
g8
I300
sg9
F0.75
sg10
I1
ssI20
(dp519
g8
I300
sg9
F0.75
sg10
I1
ssssg83
(dp520
g5
(dp521
g8
I300
sg9
F0.25
sg10
I1
sssg86
(dp522
g5
(dp523
g8
I300
sg9
F0.25
sg10
I1
sssg89
(dp524
g5
(dp525
I1
(dp526
g8
I300
sg9
F0.5
sg10
I1
ssI2
(dp527
g8
I300
sg9
F0.5
sg10
I1
ssI3
(dp528
g8
I300
sg9
F0.75
sg10
I1
ssI4
(dp529
g8
I300
sg9
F0.75
sg10
I1
ssI5
(dp530
g8
I300
sg9
F0.75
sg10
I1
ssI6
(dp531
g8
I300
sg9
F0.5
sg10
I1
ssI7
(dp532
g8
I300
sg9
F0.5
sg10
I1
ssI8
(dp533
g8
I300
sg9
F0.75
sg10
I1
ssI9
(dp534
g8
I300
sg9
F0.75
sg10
I1
ssI10
(dp535
g8
I300
sg9
F0.5
sg10
I1
ssI11
(dp536
g8
I300
sg9
F0.75
sg10
I1
ssI12
(dp537
g8
I300
sg9
F0.75
sg10
I1
ssI13
(dp538
g8
I300
sg9
F0.75
sg10
I1
ssI14
(dp539
g8
I300
sg9
F0.5
sg10
I1
ssI15
(dp540
g8
I300
sg9
F0.5
sg10
I1
ssI16
(dp541
g8
I300
sg9
F0.25
sg10
I1
ssI17
(dp542
g8
I300
sg9
F0.75
sg10
I1
ssI18
(dp543
g8
I300
sg9
F0.25
sg10
I1
ssI19
(dp544
g8
I300
sg9
F0.1
sg10
I1
ssI20
(dp545
g8
I300
sg9
F0.5
sg10
I1
sssssS'bpic2011_f2'
p546
(dp547
g3
(dp548
g5
(dp549
I1
(dp550
g8
I300
sg9
F0.75
sg10
I1
ssI2
(dp551
g8
I300
sg9
F0.75
sg10
I1
ssI3
(dp552
g8
I300
sg9
F0.75
sg10
I1
ssI4
(dp553
g8
I300
sg9
F0.75
sg10
I1
ssI5
(dp554
g8
I300
sg9
F0.75
sg10
I1
ssI6
(dp555
g8
I300
sg9
F0.75
sg10
I1
ssI7
(dp556
g8
I300
sg9
F0.75
sg10
I1
ssI8
(dp557
g8
I300
sg9
F0.75
sg10
I1
ssI9
(dp558
g8
I300
sg9
F0.75
sg10
I1
ssI10
(dp559
g8
I300
sg9
F0.75
sg10
I1
ssI11
(dp560
g8
I300
sg9
F0.75
sg10
I1
ssI12
(dp561
g8
I300
sg9
F0.75
sg10
I1
ssI13
(dp562
g8
I300
sg9
F0.5
sg10
I1
ssI14
(dp563
g8
I300
sg9
F0.5
sg10
I1
ssI15
(dp564
g8
I300
sg9
F0.75
sg10
I1
ssI16
(dp565
g8
I300
sg9
F0.75
sg10
I1
ssI17
(dp566
g8
I300
sg9
F0.75
sg10
I1
ssI18
(dp567
g8
I300
sg9
F0.75
sg10
I1
ssI19
(dp568
g8
I300
sg9
F0.75
sg10
I1
ssI20
(dp569
g8
I300
sg9
F0.75
sg10
I1
ssssg31
(dp570
g5
(dp571
g8
I300
sg9
F0.25
sg10
I1
sssg34
(dp572
g5
(dp573
I1
(dp574
g8
I300
sg9
F0.75
sg10
I1
ssI2
(dp575
g8
I300
sg9
F0.75
sg10
I1
ssI3
(dp576
g8
I300
sg9
F0.75
sg10
I1
ssI4
(dp577
g8
I300
sg9
F0.75
sg10
I1
ssI5
(dp578
g8
I300
sg9
F0.5
sg10
I1
ssI6
(dp579
g8
I300
sg9
F0.75
sg10
I1
ssI7
(dp580
g8
I300
sg9
F0.75
sg10
I1
ssI8
(dp581
g8
I300
sg9
F0.75
sg10
I1
ssI9
(dp582
g8
I300
sg9
F0.75
sg10
I1
ssI10
(dp583
g8
I300
sg9
F0.75
sg10
I1
ssI11
(dp584
g8
I300
sg9
F0.75
sg10
I1
ssI12
(dp585
g8
I300
sg9
F0.75
sg10
I1
ssI13
(dp586
g8
I300
sg9
F0.75
sg10
I1
ssI14
(dp587
g8
I300
sg9
F0.75
sg10
I1
ssI15
(dp588
g8
I300
sg9
F0.75
sg10
I1
ssI16
(dp589
g8
I300
sg9
F0.75
sg10
I1
ssI17
(dp590
g8
I300
sg9
F0.75
sg10
I1
ssI18
(dp591
g8
I300
sg9
F0.5
sg10
I1
ssI19
(dp592
g8
I300
sg9
F0.75
sg10
I1
ssI20
(dp593
g8
I300
sg9
F0.75
sg10
I1
ssssg57
(dp594
g5
(dp595
g8
I300
sg9
F0.25
sg10
I1
sssg60
(dp596
g5
(dp597
I1
(dp598
g8
I300
sg9
F0.5
sg10
I1
ssI2
(dp599
g8
I300
sg9
F0.75
sg10
I1
ssI3
(dp600
g8
I300
sg9
F0.5
sg10
I1
ssI4
(dp601
g8
I300
sg9
F0.75
sg10
I1
ssI5
(dp602
g8
I300
sg9
F0.75
sg10
I1
ssI6
(dp603
g8
I300
sg9
F0.75
sg10
I1
ssI7
(dp604
g8
I300
sg9
F0.75
sg10
I1
ssI8
(dp605
g8
I300
sg9
F0.75
sg10
I1
ssI9
(dp606
g8
I300
sg9
F0.75
sg10
I1
ssI10
(dp607
g8
I300
sg9
F0.75
sg10
I1
ssI11
(dp608
g8
I300
sg9
F0.75
sg10
I1
ssI12
(dp609
g8
I300
sg9
F0.5
sg10
I1
ssI13
(dp610
g8
I300
sg9
F0.75
sg10
I1
ssI14
(dp611
g8
I300
sg9
F0.75
sg10
I1
ssI15
(dp612
g8
I300
sg9
F0.75
sg10
I1
ssI16
(dp613
g8
I300
sg9
F0.5
sg10
I1
ssI17
(dp614
g8
I300
sg9
F0.75
sg10
I1
ssI18
(dp615
g8
I300
sg9
F0.75
sg10
I1
ssI19
(dp616
g8
I300
sg9
F0.75
sg10
I1
ssI20
(dp617
g8
I300
sg9
F0.75
sg10
I1
ssssg83
(dp618
g5
(dp619
g8
I300
sg9
F0.25
sg10
I1
sssg86
(dp620
g5
(dp621
g8
I300
sg9
F0.1
sg10
I1
sssg89
(dp622
g5
(dp623
I1
(dp624
g8
I300
sg9
F0.5
sg10
I1
ssI2
(dp625
g8
I300
sg9
F0.75
sg10
I1
ssI3
(dp626
g8
I300
sg9
F0.25
sg10
I1
ssI4
(dp627
g8
I300
sg9
F0.5
sg10
I1
ssI5
(dp628
g8
I300
sg9
F0.75
sg10
I1
ssI6
(dp629
g8
I300
sg9
F0.75
sg10
I1
ssI7
(dp630
g8
I300
sg9
F0.75
sg10
I1
ssI8
(dp631
g8
I300
sg9
F0.5
sg10
I1
ssI9
(dp632
g8
I300
sg9
F0.25
sg10
I1
ssI10
(dp633
g8
I300
sg9
F0.25
sg10
I1
ssI11
(dp634
g8
I300
sg9
F0.5
sg10
I1
ssI12
(dp635
g8
I300
sg9
F0.5
sg10
I1
ssI13
(dp636
g8
I300
sg9
F0.75
sg10
I1
ssI14
(dp637
g8
I300
sg9
F0.75
sg10
I1
ssI15
(dp638
g8
I300
sg9
F0.25
sg10
I1
ssI16
(dp639
g8
I300
sg9
F0.5
sg10
I1
ssI17
(dp640
g8
I300
sg9
F0.75
sg10
I1
ssI18
(dp641
g8
I300
sg9
F0.75
sg10
I1
ssI19
(dp642
g8
I300
sg9
F0.75
sg10
I1
ssI20
(dp643
g8
I300
sg9
F0.75
sg10
I1
sssssS'bpic2011_f3'
p644
(dp645
g3
(dp646
g5
(dp647
I1
(dp648
g8
I300
sg9
F0.75
sg10
I1
ssI2
(dp649
g8
I300
sg9
F0.75
sg10
I1
ssI3
(dp650
g8
I300
sg9
F0.75
sg10
I1
ssI4
(dp651
g8
I300
sg9
F0.75
sg10
I1
ssI5
(dp652
g8
I300
sg9
F0.5
sg10
I1
ssI6
(dp653
g8
I300
sg9
F0.75
sg10
I1
ssI7
(dp654
g8
I300
sg9
F0.5
sg10
I1
ssI8
(dp655
g8
I300
sg9
F0.5
sg10
I1
ssI9
(dp656
g8
I300
sg9
F0.75
sg10
I1
ssI10
(dp657
g8
I300
sg9
F0.75
sg10
I1
ssI11
(dp658
g8
I300
sg9
F0.75
sg10
I1
ssI12
(dp659
g8
I300
sg9
F0.75
sg10
I1
ssI13
(dp660
g8
I300
sg9
F0.75
sg10
I1
ssI14
(dp661
g8
I300
sg9
F0.75
sg10
I1
ssI15
(dp662
g8
I300
sg9
F0.5
sg10
I1
ssI16
(dp663
g8
I300
sg9
F0.5
sg10
I1
ssI17
(dp664
g8
I300
sg9
F0.75
sg10
I1
ssI18
(dp665
g8
I300
sg9
F0.5
sg10
I1
ssI19
(dp666
g8
I300
sg9
F0.75
sg10
I1
ssI20
(dp667
g8
I300
sg9
F0.75
sg10
I1
ssssg31
(dp668
g5
(dp669
g8
I300
sg9
F0.75
sg10
I1
sssg34
(dp670
g5
(dp671
I1
(dp672
g8
I300
sg9
F0.75
sg10
I1
ssI2
(dp673
g8
I300
sg9
F0.75
sg10
I1
ssI3
(dp674
g8
I300
sg9
F0.75
sg10
I1
ssI4
(dp675
g8
I300
sg9
F0.75
sg10
I1
ssI5
(dp676
g8
I300
sg9
F0.75
sg10
I1
ssI6
(dp677
g8
I300
sg9
F0.75
sg10
I1
ssI7
(dp678
g8
I300
sg9
F0.75
sg10
I1
ssI8
(dp679
g8
I300
sg9
F0.5
sg10
I1
ssI9
(dp680
g8
I300
sg9
F0.5
sg10
I1
ssI10
(dp681
g8
I300
sg9
F0.75
sg10
I1
ssI11
(dp682
g8
I300
sg9
F0.75
sg10
I1
ssI12
(dp683
g8
I300
sg9
F0.75
sg10
I1
ssI13
(dp684
g8
I300
sg9
F0.75
sg10
I1
ssI14
(dp685
g8
I300
sg9
F0.75
sg10
I1
ssI15
(dp686
g8
I300
sg9
F0.75
sg10
I1
ssI16
(dp687
g8
I300
sg9
F0.75
sg10
I1
ssI17
(dp688
g8
I300
sg9
F0.75
sg10
I1
ssI18
(dp689
g8
I300
sg9
F0.5
sg10
I1
ssI19
(dp690
g8
I300
sg9
F0.75
sg10
I1
ssI20
(dp691
g8
I300
sg9
F0.75
sg10
I1
ssssg57
(dp692
g5
(dp693
g8
I300
sg9
F0.5
sg10
I1
sssg60
(dp694
g5
(dp695
I1
(dp696
g8
I300
sg9
F0.5
sg10
I1
ssI2
(dp697
g8
I300
sg9
F0.75
sg10
I1
ssI3
(dp698
g8
I300
sg9
F0.75
sg10
I1
ssI4
(dp699
g8
I300
sg9
F0.5
sg10
I1
ssI5
(dp700
g8
I300
sg9
F0.5
sg10
I1
ssI6
(dp701
g8
I300
sg9
F0.5
sg10
I1
ssI7
(dp702
g8
I300
sg9
F0.75
sg10
I1
ssI8
(dp703
g8
I300
sg9
F0.25
sg10
I1
ssI9
(dp704
g8
I300
sg9
F0.25
sg10
I1
ssI10
(dp705
g8
I300
sg9
F0.1
sg10
I1
ssI11
(dp706
g8
I300
sg9
F0.25
sg10
I1
ssI12
(dp707
g8
I300
sg9
F0.1
sg10
I1
ssI13
(dp708
g8
I300
sg9
F0.1
sg10
I1
ssI14
(dp709
g8
I300
sg9
g12
sg10
I1
ssI15
(dp710
g8
I300
sg9
F0.25
sg10
I1
ssI16
(dp711
g8
I300
sg9
F0.5
sg10
I1
ssI17
(dp712
g8
I300
sg9
F0.5
sg10
I1
ssI18
(dp713
g8
I300
sg9
F0.5
sg10
I1
ssI19
(dp714
g8
I300
sg9
g12
sg10
I1
ssI20
(dp715
g8
I300
sg9
F0.5
sg10
I1
ssssg83
(dp716
g5
(dp717
g8
I300
sg9
F0.5
sg10
I1
sssg86
(dp718
g5
(dp719
g8
I300
sg9
F0.1
sg10
I1
sssg89
(dp720
g5
(dp721
I1
(dp722
g8
I300
sg9
F0.5
sg10
I1
ssI2
(dp723
g8
I300
sg9
F0.5
sg10
I1
ssI3
(dp724
g8
I300
sg9
F0.5
sg10
I1
ssI4
(dp725
g8
I300
sg9
F0.5
sg10
I1
ssI5
(dp726
g8
I300
sg9
F0.75
sg10
I1
ssI6
(dp727
g8
I300
sg9
F0.25
sg10
I1
ssI7
(dp728
g8
I300
sg9
F0.75
sg10
I1
ssI8
(dp729
g8
I300
sg9
F0.1
sg10
I1
ssI9
(dp730
g8
I300
sg9
F0.1
sg10
I1
ssI10
(dp731
g8
I300
sg9
F0.25
sg10
I1
ssI11
(dp732
g8
I300
sg9
F0.25
sg10
I1
ssI12
(dp733
g8
I300
sg9
F0.25
sg10
I1
ssI13
(dp734
g8
I300
sg9
F0.5
sg10
I1
ssI14
(dp735
g8
I300
sg9
F0.25
sg10
I1
ssI15
(dp736
g8
I300
sg9
F0.75
sg10
I1
ssI16
(dp737
g8
I300
sg9
F0.25
sg10
I1
ssI17
(dp738
g8
I300
sg9
F0.75
sg10
I1
ssI18
(dp739
g8
I300
sg9
F0.5
sg10
I1
ssI19
(dp740
g8
I300
sg9
F0.75
sg10
I1
ssI20
(dp741
g8
I300
sg9
F0.5
sg10
I1
sssssS'bpic2011_f4'
p742
(dp743
g3
(dp744
g5
(dp745
I1
(dp746
g8
I300
sg9
F0.75
sg10
I1
ssI2
(dp747
g8
I300
sg9
F0.75
sg10
I1
ssI3
(dp748
g8
I300
sg9
F0.75
sg10
I1
ssI4
(dp749
g8
I300
sg9
F0.75
sg10
I1
ssI5
(dp750
g8
I300
sg9
F0.75
sg10
I1
ssI6
(dp751
g8
I300
sg9
F0.75
sg10
I1
ssI7
(dp752
g8
I300
sg9
F0.75
sg10
I1
ssI8
(dp753
g8
I300
sg9
F0.75
sg10
I1
ssI9
(dp754
g8
I300
sg9
F0.75
sg10
I1
ssI10
(dp755
g8
I300
sg9
F0.75
sg10
I1
ssI11
(dp756
g8
I300
sg9
F0.75
sg10
I1
ssI12
(dp757
g8
I300
sg9
F0.75
sg10
I1
ssI13
(dp758
g8
I300
sg9
F0.75
sg10
I1
ssI14
(dp759
g8
I300
sg9
F0.75
sg10
I1
ssI15
(dp760
g8
I300
sg9
F0.75
sg10
I1
ssI16
(dp761
g8
I300
sg9
F0.75
sg10
I1
ssI17
(dp762
g8
I300
sg9
F0.5
sg10
I1
ssI18
(dp763
g8
I300
sg9
F0.75
sg10
I1
ssI19
(dp764
g8
I300
sg9
F0.75
sg10
I1
ssI20
(dp765
g8
I300
sg9
F0.75
sg10
I1
ssssg31
(dp766
g5
(dp767
g8
I300
sg9
F0.5
sg10
I1
sssg34
(dp768
g5
(dp769
I1
(dp770
g8
I300
sg9
F0.75
sg10
I1
ssI2
(dp771
g8
I300
sg9
F0.75
sg10
I1
ssI3
(dp772
g8
I300
sg9
F0.75
sg10
I1
ssI4
(dp773
g8
I300
sg9
F0.5
sg10
I1
ssI5
(dp774
g8
I300
sg9
F0.5
sg10
I1
ssI6
(dp775
g8
I300
sg9
F0.75
sg10
I1
ssI7
(dp776
g8
I300
sg9
F0.75
sg10
I1
ssI8
(dp777
g8
I300
sg9
F0.75
sg10
I1
ssI9
(dp778
g8
I300
sg9
F0.75
sg10
I1
ssI10
(dp779
g8
I300
sg9
F0.5
sg10
I1
ssI11
(dp780
g8
I300
sg9
F0.75
sg10
I1
ssI12
(dp781
g8
I300
sg9
F0.75
sg10
I1
ssI13
(dp782
g8
I300
sg9
F0.75
sg10
I1
ssI14
(dp783
g8
I300
sg9
F0.75
sg10
I1
ssI15
(dp784
g8
I300
sg9
F0.75
sg10
I1
ssI16
(dp785
g8
I300
sg9
F0.75
sg10
I1
ssI17
(dp786
g8
I300
sg9
F0.75
sg10
I1
ssI18
(dp787
g8
I300
sg9
F0.75
sg10
I1
ssI19
(dp788
g8
I300
sg9
F0.75
sg10
I1
ssI20
(dp789
g8
I300
sg9
F0.75
sg10
I1
ssssg57
(dp790
g5
(dp791
g8
I300
sg9
F0.5
sg10
I1
sssg60
(dp792
g5
(dp793
I1
(dp794
g8
I300
sg9
F0.75
sg10
I1
ssI2
(dp795
g8
I300
sg9
F0.75
sg10
I1
ssI3
(dp796
g8
I300
sg9
F0.5
sg10
I1
ssI4
(dp797
g8
I300
sg9
F0.5
sg10
I1
ssI5
(dp798
g8
I300
sg9
F0.75
sg10
I1
ssI6
(dp799
g8
I300
sg9
F0.75
sg10
I1
ssI7
(dp800
g8
I300
sg9
F0.75
sg10
I1
ssI8
(dp801
g8
I300
sg9
F0.75
sg10
I1
ssI9
(dp802
g8
I300
sg9
F0.75
sg10
I1
ssI10
(dp803
g8
I300
sg9
F0.75
sg10
I1
ssI11
(dp804
g8
I300
sg9
F0.5
sg10
I1
ssI12
(dp805
g8
I300
sg9
F0.5
sg10
I1
ssI13
(dp806
g8
I300
sg9
F0.75
sg10
I1
ssI14
(dp807
g8
I300
sg9
F0.75
sg10
I1
ssI15
(dp808
g8
I300
sg9
F0.75
sg10
I1
ssI16
(dp809
g8
I300
sg9
F0.5
sg10
I1
ssI17
(dp810
g8
I300
sg9
F0.5
sg10
I1
ssI18
(dp811
g8
I300
sg9
F0.5
sg10
I1
ssI19
(dp812
g8
I300
sg9
F0.5
sg10
I1
ssI20
(dp813
g8
I300
sg9
F0.75
sg10
I1
ssssg83
(dp814
g5
(dp815
g8
I300
sg9
F0.5
sg10
I1
sssg86
(dp816
g5
(dp817
g8
I300
sg9
F0.25
sg10
I1
sssg89
(dp818
g5
(dp819
I1
(dp820
g8
I300
sg9
F0.75
sg10
I1
ssI2
(dp821
g8
I300
sg9
F0.75
sg10
I1
ssI3
(dp822
g8
I300
sg9
F0.75
sg10
I1
ssI4
(dp823
g8
I300
sg9
F0.5
sg10
I1
ssI5
(dp824
g8
I300
sg9
F0.75
sg10
I1
ssI6
(dp825
g8
I300
sg9
F0.5
sg10
I1
ssI7
(dp826
g8
I300
sg9
F0.5
sg10
I1
ssI8
(dp827
g8
I300
sg9
F0.75
sg10
I1
ssI9
(dp828
g8
I300
sg9
F0.25
sg10
I1
ssI10
(dp829
g8
I300
sg9
F0.5
sg10
I1
ssI11
(dp830
g8
I300
sg9
F0.5
sg10
I1
ssI12
(dp831
g8
I300
sg9
F0.75
sg10
I1
ssI13
(dp832
g8
I300
sg9
F0.5
sg10
I1
ssI14
(dp833
g8
I300
sg9
F0.75
sg10
I1
ssI15
(dp834
g8
I300
sg9
F0.75
sg10
I1
ssI16
(dp835
g8
I300
sg9
F0.5
sg10
I1
ssI17
(dp836
g8
I300
sg9
F0.5
sg10
I1
ssI18
(dp837
g8
I300
sg9
F0.75
sg10
I1
ssI19
(dp838
g8
I300
sg9
F0.75
sg10
I1
ssI20
(dp839
g8
I300
sg9
F0.75
sg10
I1
sssssS'bpic2015_2_f2'
p840
(dp841
g3
(dp842
g5
(dp843
I1
(dp844
g8
I300
sg9
g12
sg10
I1
ssI2
(dp845
g8
I300
sg9
F0.25
sg10
I1
ssI3
(dp846
g8
I300
sg9
F0.25
sg10
I1
ssI4
(dp847
g8
I300
sg9
F0.25
sg10
I1
ssI5
(dp848
g8
I300
sg9
F0.25
sg10
I1
ssI6
(dp849
g8
I300
sg9
F0.1
sg10
I1
ssI7
(dp850
g8
I300
sg9
g12
sg10
I1
ssI8
(dp851
g8
I300
sg9
F0.25
sg10
I1
ssI9
(dp852
g8
I300
sg9
F0.1
sg10
I1
ssI10
(dp853
g8
I300
sg9
F0.1
sg10
I1
ssI11
(dp854
g8
I300
sg9
g12
sg10
I1
ssI12
(dp855
g8
I300
sg9
F0.05
sg10
I1
ssI13
(dp856
g8
I300
sg9
F0.05
sg10
I1
ssI14
(dp857
g8
I300
sg9
g12
sg10
I1
ssI15
(dp858
g8
I300
sg9
F0.05
sg10
I1
ssI16
(dp859
g8
I300
sg9
F0.05
sg10
I1
ssI17
(dp860
g8
I300
sg9
F0.1
sg10
I1
ssI18
(dp861
g8
I300
sg9
F0.05
sg10
I1
ssI19
(dp862
g8
I300
sg9
F0.05
sg10
I1
ssI20
(dp863
g8
I300
sg9
F0.05
sg10
I1
ssssg31
(dp864
g5
(dp865
g8
I300
sg9
F0.1
sg10
I1
sssg34
(dp866
g5
(dp867
I1
(dp868
g8
I300
sg9
F0.1
sg10
I1
ssI2
(dp869
g8
I300
sg9
F0.25
sg10
I1
ssI3
(dp870
g8
I300
sg9
F0.25
sg10
I1
ssI4
(dp871
g8
I300
sg9
F0.25
sg10
I1
ssI5
(dp872
g8
I300
sg9
F0.25
sg10
I1
ssI6
(dp873
g8
I300
sg9
F0.25
sg10
I1
ssI7
(dp874
g8
I300
sg9
g12
sg10
I1
ssI8
(dp875
g8
I300
sg9
F0.1
sg10
I1
ssI9
(dp876
g8
I300
sg9
F0.1
sg10
I1
ssI10
(dp877
g8
I300
sg9
F0.25
sg10
I1
ssI11
(dp878
g8
I300
sg9
F0.1
sg10
I1
ssI12
(dp879
g8
I300
sg9
g12
sg10
I1
ssI13
(dp880
g8
I300
sg9
g12
sg10
I1
ssI14
(dp881
g8
I300
sg9
g12
sg10
I1
ssI15
(dp882
g8
I300
sg9
F0.05
sg10
I1
ssI16
(dp883
g8
I300
sg9
g12
sg10
I1
ssI17
(dp884
g8
I300
sg9
F0.1
sg10
I1
ssI18
(dp885
g8
I300
sg9
F0.05
sg10
I1
ssI19
(dp886
g8
I300
sg9
g12
sg10
I1
ssI20
(dp887
g8
I300
sg9
g12
sg10
I1
ssssg57
(dp888
g5
(dp889
g8
I300
sg9
g12
sg10
I1
sssg60
(dp890
g5
(dp891
I1
(dp892
g8
I300
sg9
F0.1
sg10
I1
ssI2
(dp893
g8
I300
sg9
g12
sg10
I1
ssI3
(dp894
g8
I300
sg9
F0.1
sg10
I1
ssI4
(dp895
g8
I300
sg9
F0.1
sg10
I1
ssI5
(dp896
g8
I300
sg9
F0.25
sg10
I1
ssI6
(dp897
g8
I300
sg9
F0.25
sg10
I1
ssI7
(dp898
g8
I300
sg9
F0.25
sg10
I1
ssI8
(dp899
g8
I300
sg9
F0.25
sg10
I1
ssI9
(dp900
g8
I300
sg9
F0.25
sg10
I1
ssI10
(dp901
g8
I300
sg9
F0.25
sg10
I1
ssI11
(dp902
g8
I300
sg9
F0.25
sg10
I1
ssI12
(dp903
g8
I300
sg9
F0.5
sg10
I1
ssI13
(dp904
g8
I300
sg9
F0.25
sg10
I1
ssI14
(dp905
g8
I300
sg9
F0.05
sg10
I1
ssI15
(dp906
g8
I300
sg9
F0.05
sg10
I1
ssI16
(dp907
g8
I300
sg9
g12
sg10
I1
ssI17
(dp908
g8
I300
sg9
F0.05
sg10
I1
ssI18
(dp909
g8
I300
sg9
g12
sg10
I1
ssI19
(dp910
g8
I300
sg9
g12
sg10
I1
ssI20
(dp911
g8
I300
sg9
g12
sg10
I1
ssssg83
(dp912
g5
(dp913
g8
I300
sg9
F0.05
sg10
I1
sssg86
(dp914
g5
(dp915
g8
I300
sg9
g12
sg10
I1
sssg89
(dp916
g5
(dp917
I1
(dp918
g8
I300
sg9
F0.1
sg10
I1
ssI2
(dp919
g8
I300
sg9
g12
sg10
I1
ssI3
(dp920
g8
I300
sg9
F0.1
sg10
I1
ssI4
(dp921
g8
I300
sg9
g12
sg10
I1
ssI5
(dp922
g8
I300
sg9
F0.1
sg10
I1
ssI6
(dp923
g8
I300
sg9
F0.25
sg10
I1
ssI7
(dp924
g8
I300
sg9
F0.1
sg10
I1
ssI8
(dp925
g8
I300
sg9
F0.25
sg10
I1
ssI9
(dp926
g8
I300
sg9
F0.1
sg10
I1
ssI10
(dp927
g8
I300
sg9
F0.25
sg10
I1
ssI11
(dp928
g8
I300
sg9
F0.1
sg10
I1
ssI12
(dp929
g8
I300
sg9
F0.25
sg10
I1
ssI13
(dp930
g8
I300
sg9
F0.1
sg10
I1
ssI14
(dp931
g8
I300
sg9
F0.25
sg10
I1
ssI15
(dp932
g8
I300
sg9
F0.5
sg10
I1
ssI16
(dp933
g8
I300
sg9
F0.25
sg10
I1
ssI17
(dp934
g8
I300
sg9
F0.1
sg10
I1
ssI18
(dp935
g8
I300
sg9
F0.25
sg10
I1
ssI19
(dp936
g8
I300
sg9
F0.05
sg10
I1
ssI20
(dp937
g8
I300
sg9
F0.25
sg10
I1
sssssS'traffic_fines'
p938
(dp939
g3
(dp940
g5
(dp941
I1
(dp942
g8
I300
sg9
F0.25
sg10
I1
ssI2
(dp943
g8
I300
sg9
F0.1
sg10
I1
ssI3
(dp944
g8
I300
sg9
F0.1
sg10
I1
ssssg31
(dp945
g5
(dp946
g8
I300
sg9
F0.25
sg10
I1
sssg34
(dp947
g5
(dp948
I1
(dp949
g8
I300
sg9
F0.25
sg10
I1
ssI2
(dp950
g8
I300
sg9
g12
sg10
I1
ssI3
(dp951
g8
I300
sg9
F0.1
sg10
I1
ssssg57
(dp952
g5
(dp953
g8
I300
sg9
F0.25
sg10
I1
sssg60
(dp954
g5
(dp955
I1
(dp956
g8
I300
sg9
F0.25
sg10
I1
ssI2
(dp957
g8
I300
sg9
F0.25
sg10
I1
ssI3
(dp958
g8
I300
sg9
F0.25
sg10
I1
ssssg83
(dp959
g5
(dp960
g8
I300
sg9
F0.25
sg10
I1
sssg86
(dp961
g5
(dp962
g8
I300
sg9
F0.25
sg10
I1
sssg89
(dp963
g5
(dp964
I1
(dp965
g8
I300
sg9
F0.25
sg10
I1
ssI2
(dp966
g8
I300
sg9
F0.25
sg10
I1
ssI3
(dp967
g8
I300
sg9
F0.25
sg10
I1
sssssS'bpic2015_3_f2'
p968
(dp969
g3
(dp970
g5
(dp971
I1
(dp972
g8
I300
sg9
F0.5
sg10
I1
ssI2
(dp973
g8
I300
sg9
F0.25
sg10
I1
ssI3
(dp974
g8
I300
sg9
F0.75
sg10
I1
ssI4
(dp975
g8
I300
sg9
F0.75
sg10
I1
ssI5
(dp976
g8
I300
sg9
F0.75
sg10
I1
ssI6
(dp977
g8
I300
sg9
F0.5
sg10
I1
ssI7
(dp978
g8
I300
sg9
F0.75
sg10
I1
ssI8
(dp979
g8
I300
sg9
F0.75
sg10
I1
ssI9
(dp980
g8
I300
sg9
F0.75
sg10
I1
ssI10
(dp981
g8
I300
sg9
F0.25
sg10
I1
ssI11
(dp982
g8
I300
sg9
F0.25
sg10
I1
ssI12
(dp983
g8
I300
sg9
g12
sg10
I1
ssI13
(dp984
g8
I300
sg9
F0.1
sg10
I1
ssI14
(dp985
g8
I300
sg9
F0.1
sg10
I1
ssI15
(dp986
g8
I300
sg9
F0.25
sg10
I1
ssI16
(dp987
g8
I300
sg9
F0.1
sg10
I1
ssI17
(dp988
g8
I300
sg9
F0.1
sg10
I1
ssI18
(dp989
g8
I300
sg9
F0.1
sg10
I1
ssI19
(dp990
g8
I300
sg9
g12
sg10
I1
ssI20
(dp991
g8
I300
sg9
F0.05
sg10
I1
ssssg31
(dp992
g5
(dp993
g8
I300
sg9
F0.25
sg10
I1
sssg34
(dp994
g5
(dp995
I1
(dp996
g8
I300
sg9
F0.5
sg10
I1
ssI2
(dp997
g8
I300
sg9
F0.25
sg10
I1
ssI3
(dp998
g8
I300
sg9
F0.75
sg10
I1
ssI4
(dp999
g8
I300
sg9
F0.5
sg10
I1
ssI5
(dp1000
g8
I300
sg9
F0.75
sg10
I1
ssI6
(dp1001
g8
I300
sg9
F0.75
sg10
I1
ssI7
(dp1002
g8
I300
sg9
F0.75
sg10
I1
ssI8
(dp1003
g8
I300
sg9
F0.5
sg10
I1
ssI9
(dp1004
g8
I300
sg9
F0.75
sg10
I1
ssI10
(dp1005
g8
I300
sg9
F0.25
sg10
I1
ssI11
(dp1006
g8
I300
sg9
F0.25
sg10
I1
ssI12
(dp1007
g8
I300
sg9
g12
sg10
I1
ssI13
(dp1008
g8
I300
sg9
F0.1
sg10
I1
ssI14
(dp1009
g8
I300
sg9
g12
sg10
I1
ssI15
(dp1010
g8
I300
sg9
F0.1
sg10
I1
ssI16
(dp1011
g8
I300
sg9
g12
sg10
I1
ssI17
(dp1012
g8
I300
sg9
F0.1
sg10
I1
ssI18
(dp1013
g8
I300
sg9
F0.25
sg10
I1
ssI19
(dp1014
g8
I300
sg9
F0.1
sg10
I1
ssI20
(dp1015
g8
I300
sg9
F0.05
sg10
I1
ssssg57
(dp1016
g5
(dp1017
g8
I300
sg9
F0.1
sg10
I1
sssg60
(dp1018
g5
(dp1019
I1
(dp1020
g8
I300
sg9
F0.25
sg10
I1
ssI2
(dp1021
g8
I300
sg9
F0.1
sg10
I1
ssI3
(dp1022
g8
I300
sg9
F0.25
sg10
I1
ssI4
(dp1023
g8
I300
sg9
F0.5
sg10
I1
ssI5
(dp1024
g8
I300
sg9
F0.5
sg10
I1
ssI6
(dp1025
g8
I300
sg9
F0.75
sg10
I1
ssI7
(dp1026
g8
I300
sg9
F0.75
sg10
I1
ssI8
(dp1027
g8
I300
sg9
F0.75
sg10
I1
ssI9
(dp1028
g8
I300
sg9
F0.75
sg10
I1
ssI10
(dp1029
g8
I300
sg9
F0.75
sg10
I1
ssI11
(dp1030
g8
I300
sg9
F0.75
sg10
I1
ssI12
(dp1031
g8
I300
sg9
F0.75
sg10
I1
ssI13
(dp1032
g8
I300
sg9
F0.75
sg10
I1
ssI14
(dp1033
g8
I300
sg9
F0.75
sg10
I1
ssI15
(dp1034
g8
I300
sg9
F0.75
sg10
I1
ssI16
(dp1035
g8
I300
sg9
F0.05
sg10
I1
ssI17
(dp1036
g8
I300
sg9
F0.1
sg10
I1
ssI18
(dp1037
g8
I300
sg9
F0.05
sg10
I1
ssI19
(dp1038
g8
I300
sg9
F0.1
sg10
I1
ssI20
(dp1039
g8
I300
sg9
F0.05
sg10
I1
ssssg83
(dp1040
g5
(dp1041
g8
I300
sg9
F0.1
sg10
I1
sssg86
(dp1042
g5
(dp1043
g8
I300
sg9
g12
sg10
I1
sssg89
(dp1044
g5
(dp1045
I1
(dp1046
g8
I300
sg9
F0.25
sg10
I1
ssI2
(dp1047
g8
I300
sg9
g12
sg10
I1
ssI3
(dp1048
g8
I300
sg9
F0.5
sg10
I1
ssI4
(dp1049
g8
I300
sg9
F0.75
sg10
I1
ssI5
(dp1050
g8
I300
sg9
F0.25
sg10
I1
ssI6
(dp1051
g8
I300
sg9
F0.1
sg10
I1
ssI7
(dp1052
g8
I300
sg9
F0.75
sg10
I1
ssI8
(dp1053
g8
I300
sg9
F0.25
sg10
I1
ssI9
(dp1054
g8
I300
sg9
F0.1
sg10
I1
ssI10
(dp1055
g8
I300
sg9
F0.1
sg10
I1
ssI11
(dp1056
g8
I300
sg9
F0.1
sg10
I1
ssI12
(dp1057
g8
I300
sg9
g12
sg10
I1
ssI13
(dp1058
g8
I300
sg9
g12
sg10
I1
ssI14
(dp1059
g8
I300
sg9
g12
sg10
I1
ssI15
(dp1060
g8
I300
sg9
g12
sg10
I1
ssI16
(dp1061
g8
I300
sg9
g12
sg10
I1
ssI17
(dp1062
g8
I300
sg9
g12
sg10
I1
ssI18
(dp1063
g8
I300
sg9
F0.25
sg10
I1
ssI19
(dp1064
g8
I300
sg9
g12
sg10
I1
ssI20
(dp1065
g8
I300
sg9
g12
sg10
I1
sssss.