(dp0
Vbpic2015_1
p1
(dp2
Vprefix_agg
p3
(dp4
Vrf
p5
(dp6
F1.0
(dp7
Vmax_features
p8
F0.75
sVn_clusters
p9
L1L
sVn_estimators
p10
L300L
ssF2.0
(dp11
g8
F0.75
sg9
L1L
sg10
L300L
ssF3.0
(dp12
g8
F0.75
sg9
L1L
sg10
L300L
ssF4.0
(dp13
g8
F0.75
sg9
L1L
sg10
L300L
ssF5.0
(dp14
g8
F0.75
sg9
L1L
sg10
L300L
ssF6.0
(dp15
g8
F0.75
sg9
L1L
sg10
L300L
ssF7.0
(dp16
g8
F0.75
sg9
L1L
sg10
L300L
ssF8.0
(dp17
g8
F0.25
sg9
L1L
sg10
L300L
ssF9.0
(dp18
g8
F0.5
sg9
L1L
sg10
L300L
ssF10.0
(dp19
g8
F0.25
sg9
L1L
sg10
L300L
ssF11.0
(dp20
g8
F0.5
sg9
L1L
sg10
L300L
ssF12.0
(dp21
g8
F0.75
sg9
L1L
sg10
L300L
ssF13.0
(dp22
g8
F0.75
sg9
L1L
sg10
L300L
ssF14.0
(dp23
g8
F0.75
sg9
L1L
sg10
L300L
ssF15.0
(dp24
g8
F0.25
sg9
L1L
sg10
L300L
ssF16.0
(dp25
g8
F0.25
sg9
L1L
sg10
L300L
ssF17.0
(dp26
g8
F0.5
sg9
L1L
sg10
L300L
ssF18.0
(dp27
g8
F0.25
sg9
L1L
sg10
L300L
ssF19.0
(dp28
g8
F0.25
sg9
L1L
sg10
L300L
ssF20.0
(dp29
g8
F0.5
sg9
L1L
sg10
L300L
ssssVprefix_combined
p30
(dp31
g5
(dp32
F1.0
(dp33
g8
F0.75
sg9
L1L
sg10
L300L
ssF2.0
(dp34
g8
F0.75
sg9
L1L
sg10
L300L
ssF3.0
(dp35
g8
F0.75
sg9
L1L
sg10
L300L
ssF4.0
(dp36
g8
F0.75
sg9
L1L
sg10
L300L
ssF5.0
(dp37
g8
F0.75
sg9
L1L
sg10
L300L
ssF6.0
(dp38
g8
F0.75
sg9
L1L
sg10
L300L
ssF7.0
(dp39
g8
F0.75
sg9
L1L
sg10
L300L
ssF8.0
(dp40
g8
F0.5
sg9
L1L
sg10
L300L
ssF9.0
(dp41
g8
F0.75
sg9
L1L
sg10
L300L
ssF10.0
(dp42
g8
F0.1
sg9
L1L
sg10
L300L
ssF11.0
(dp43
g8
F0.75
sg9
L1L
sg10
L300L
ssF12.0
(dp44
g8
F0.75
sg9
L1L
sg10
L300L
ssF13.0
(dp45
g8
F0.75
sg9
L1L
sg10
L300L
ssF14.0
(dp46
g8
F0.75
sg9
L1L
sg10
L300L
ssF15.0
(dp47
g8
F0.1
sg9
L1L
sg10
L300L
ssF16.0
(dp48
g8
F0.25
sg9
L1L
sg10
L300L
ssF17.0
(dp49
g8
F0.25
sg9
L1L
sg10
L300L
ssF18.0
(dp50
g8
F0.5
sg9
L1L
sg10
L300L
ssF19.0
(dp51
g8
F0.1
sg9
L1L
sg10
L300L
ssF20.0
(dp52
g8
F0.25
sg9
L1L
sg10
L300L
ssssVsingle_agg
p53
(dp54
g5
(dp55
g8
F0.75
sg9
L1L
sg10
L300L
sssVsingle_combined
p56
(dp57
g5
(dp58
g8
F0.5
sg9
L1L
sg10
L300L
sssVprefix_index
p59
(dp60
g5
(dp61
F1.0
(dp62
g8
F0.25
sg9
L1L
sg10
L300L
ssF2.0
(dp63
g8
F0.5
sg9
L1L
sg10
L300L
ssF3.0
(dp64
g8
F0.25
sg9
L1L
sg10
L300L
ssF4.0
(dp65
g8
F0.5
sg9
L1L
sg10
L300L
ssF5.0
(dp66
g8
F0.75
sg9
L1L
sg10
L300L
ssF6.0
(dp67
g8
F0.75
sg9
L1L
sg10
L300L
ssF7.0
(dp68
g8
F0.25
sg9
L1L
sg10
L300L
ssF8.0
(dp69
g8
F0.25
sg9
L1L
sg10
L300L
ssF9.0
(dp70
g8
F0.25
sg9
L1L
sg10
L300L
ssF10.0
(dp71
g8
F0.25
sg9
L1L
sg10
L300L
ssF11.0
(dp72
g8
Vsqrt
p73
sg9
L1L
sg10
L300L
ssF12.0
(dp74
g8
F0.75
sg9
L1L
sg10
L300L
ssF13.0
(dp75
g8
F0.75
sg9
L1L
sg10
L300L
ssF14.0
(dp76
g8
F0.75
sg9
L1L
sg10
L300L
ssF15.0
(dp77
g8
F0.75
sg9
L1L
sg10
L300L
ssF16.0
(dp78
g8
F0.75
sg9
L1L
sg10
L300L
ssF17.0
(dp79
g8
g73
sg9
L1L
sg10
L300L
ssF18.0
(dp80
g8
g73
sg9
L1L
sg10
L300L
ssF19.0
(dp81
g8
F0.05
sg9
L1L
sg10
L300L
ssF20.0
(dp82
g8
F0.1
sg9
L1L
sg10
L300L
ssssVcluster_agg
p83
(dp84
g5
(dp85
g8
F0.5
sg9
L2L
sg10
L300L
sssVprefix_laststate
p86
(dp87
g5
(dp88
F1.0
(dp89
g8
F0.25
sg9
L1L
sg10
L300L
ssF2.0
(dp90
g8
F0.5
sg9
L1L
sg10
L300L
ssF3.0
(dp91
g8
F0.5
sg9
L1L
sg10
L300L
ssF4.0
(dp92
g8
F0.5
sg9
L1L
sg10
L300L
ssF5.0
(dp93
g8
F0.5
sg9
L1L
sg10
L300L
ssF6.0
(dp94
g8
F0.25
sg9
L1L
sg10
L300L
ssF7.0
(dp95
g8
F0.1
sg9
L1L
sg10
L300L
ssF8.0
(dp96
g8
F0.25
sg9
L1L
sg10
L300L
ssF9.0
(dp97
g8
F0.25
sg9
L1L
sg10
L300L
ssF10.0
(dp98
g8
F0.1
sg9
L1L
sg10
L300L
ssF11.0
(dp99
g8
F0.75
sg9
L1L
sg10
L300L
ssF12.0
(dp100
g8
F0.75
sg9
L1L
sg10
L300L
ssF13.0
(dp101
g8
F0.1
sg9
L1L
sg10
L300L
ssF14.0
(dp102
g8
F0.75
sg9
L1L
sg10
L300L
ssF15.0
(dp103
g8
F0.5
sg9
L1L
sg10
L300L
ssF16.0
(dp104
g8
F0.75
sg9
L1L
sg10
L300L
ssF17.0
(dp105
g8
F0.25
sg9
L1L
sg10
L300L
ssF18.0
(dp106
g8
F0.5
sg9
L1L
sg10
L300L
ssF19.0
(dp107
g8
F0.5
sg9
L1L
sg10
L300L
ssF20.0
(dp108
g8
F0.5
sg9
L1L
sg10
L300L
ssssVsingle_index
p109
(dp110
g5
(dp111
g8
F0.5
sg9
L1L
sg10
L300L
sssVsingle_laststate
p112
(dp113
g5
(dp114
g8
F0.25
sg9
L1L
sg10
L300L
sssVcluster_combined
p115
(dp116
g5
(dp117
g8
F0.5
sg9
L2L
sg10
L300L
sssVcluster_laststate
p118
(dp119
g5
(dp120
g8
F0.25
sg9
L2L
sg10
L300L
ssssVbpic2015_4
p121
(dp122
g3
(dp123
g5
(dp124
F1.0
(dp125
g8
F0.1
sg9
L1L
sg10
L300L
ssF2.0
(dp126
g8
F0.25
sg9
L1L
sg10
L300L
ssF3.0
(dp127
g8
g73
sg9
L1L
sg10
L300L
ssF4.0
(dp128
g8
g73
sg9
L1L
sg10
L300L
ssF5.0
(dp129
g8
F0.25
sg9
L1L
sg10
L300L
ssF6.0
(dp130
g8
F0.25
sg9
L1L
sg10
L300L
ssF7.0
(dp131
g8
g73
sg9
L1L
sg10
L300L
ssF8.0
(dp132
g8
F0.25
sg9
L1L
sg10
L300L
ssF9.0
(dp133
g8
F0.25
sg9
L1L
sg10
L300L
ssF10.0
(dp134
g8
F0.75
sg9
L1L
sg10
L300L
ssF11.0
(dp135
g8
F0.5
sg9
L1L
sg10
L300L
ssF12.0
(dp136
g8
F0.75
sg9
L1L
sg10
L300L
ssF13.0
(dp137
g8
g73
sg9
L1L
sg10
L300L
ssF14.0
(dp138
g8
F0.5
sg9
L1L
sg10
L300L
ssF15.0
(dp139
g8
F0.5
sg9
L1L
sg10
L300L
ssF16.0
(dp140
g8
F0.75
sg9
L1L
sg10
L300L
ssF17.0
(dp141
g8
F0.75
sg9
L1L
sg10
L300L
ssF18.0
(dp142
g8
F0.5
sg9
L1L
sg10
L300L
ssF19.0
(dp143
g8
F0.5
sg9
L1L
sg10
L300L
ssF20.0
(dp144
g8
F0.25
sg9
L1L
sg10
L300L
ssssg30
(dp145
g5
(dp146
F1.0
(dp147
g8
g73
sg9
L1L
sg10
L300L
ssF2.0
(dp148
g8
F0.1
sg9
L1L
sg10
L300L
ssF3.0
(dp149
g8
F0.25
sg9
L1L
sg10
L300L
ssF4.0
(dp150
g8
F0.05
sg9
L1L
sg10
L300L
ssF5.0
(dp151
g8
F0.25
sg9
L1L
sg10
L300L
ssF6.0
(dp152
g8
g73
sg9
L1L
sg10
L300L
ssF7.0
(dp153
g8
F0.5
sg9
L1L
sg10
L300L
ssF8.0
(dp154
g8
g73
sg9
L1L
sg10
L300L
ssF9.0
(dp155
g8
F0.25
sg9
L1L
sg10
L300L
ssF10.0
(dp156
g8
F0.25
sg9
L1L
sg10
L300L
ssF11.0
(dp157
g8
F0.25
sg9
L1L
sg10
L300L
ssF12.0
(dp158
g8
F0.75
sg9
L1L
sg10
L300L
ssF13.0
(dp159
g8
F0.25
sg9
L1L
sg10
L300L
ssF14.0
(dp160
g8
F0.5
sg9
L1L
sg10
L300L
ssF15.0
(dp161
g8
F0.5
sg9
L1L
sg10
L300L
ssF16.0
(dp162
g8
F0.5
sg9
L1L
sg10
L300L
ssF17.0
(dp163
g8
F0.75
sg9
L1L
sg10
L300L
ssF18.0
(dp164
g8
F0.25
sg9
L1L
sg10
L300L
ssF19.0
(dp165
g8
F0.75
sg9
L1L
sg10
L300L
ssF20.0
(dp166
g8
F0.25
sg9
L1L
sg10
L300L
ssssg53
(dp167
g5
(dp168
g8
F0.05
sg9
L1L
sg10
L300L
sssg56
(dp169
g5
(dp170
g8
F0.1
sg9
L1L
sg10
L300L
sssg59
(dp171
g5
(dp172
F1.0
(dp173
g8
g73
sg9
L1L
sg10
L300L
ssF2.0
(dp174
g8
F0.1
sg9
L1L
sg10
L300L
ssF3.0
(dp175
g8
g73
sg9
L1L
sg10
L300L
ssF4.0
(dp176
g8
F0.05
sg9
L1L
sg10
L300L
ssF5.0
(dp177
g8
F0.1
sg9
L1L
sg10
L300L
ssF6.0
(dp178
g8
g73
sg9
L1L
sg10
L300L
ssF7.0
(dp179
g8
F0.25
sg9
L1L
sg10
L300L
ssF8.0
(dp180
g8
F0.25
sg9
L1L
sg10
L300L
ssF9.0
(dp181
g8
F0.25
sg9
L1L
sg10
L300L
ssF10.0
(dp182
g8
F0.1
sg9
L1L
sg10
L300L
ssF11.0
(dp183
g8
F0.25
sg9
L1L
sg10
L300L
ssF12.0
(dp184
g8
F0.25
sg9
L1L
sg10
L300L
ssF13.0
(dp185
g8
F0.75
sg9
L1L
sg10
L300L
ssF14.0
(dp186
g8
F0.75
sg9
L1L
sg10
L300L
ssF15.0
(dp187
g8
F0.5
sg9
L1L
sg10
L300L
ssF16.0
(dp188
g8
F0.75
sg9
L1L
sg10
L300L
ssF17.0
(dp189
g8
F0.75
sg9
L1L
sg10
L300L
ssF18.0
(dp190
g8
F0.75
sg9
L1L
sg10
L300L
ssF19.0
(dp191
g8
F0.75
sg9
L1L
sg10
L300L
ssF20.0
(dp192
g8
F0.5
sg9
L1L
sg10
L300L
ssssg83
(dp193
g5
(dp194
g8
F0.25
sg9
L10L
sg10
L300L
sssg86
(dp195
g5
(dp196
F1.0
(dp197
g8
g73
sg9
L1L
sg10
L300L
ssF2.0
(dp198
g8
F0.25
sg9
L1L
sg10
L300L
ssF3.0
(dp199
g8
F0.1
sg9
L1L
sg10
L300L
ssF4.0
(dp200
g8
F0.1
sg9
L1L
sg10
L300L
ssF5.0
(dp201
g8
F0.25
sg9
L1L
sg10
L300L
ssF6.0
(dp202
g8
F0.25
sg9
L1L
sg10
L300L
ssF7.0
(dp203
g8
F0.25
sg9
L1L
sg10
L300L
ssF8.0
(dp204
g8
F0.25
sg9
L1L
sg10
L300L
ssF9.0
(dp205
g8
F0.25
sg9
L1L
sg10
L300L
ssF10.0
(dp206
g8
F0.1
sg9
L1L
sg10
L300L
ssF11.0
(dp207
g8
F0.5
sg9
L1L
sg10
L300L
ssF12.0
(dp208
g8
F0.75
sg9
L1L
sg10
L300L
ssF13.0
(dp209
g8
F0.25
sg9
L1L
sg10
L300L
ssF14.0
(dp210
g8
F0.25
sg9
L1L
sg10
L300L
ssF15.0
(dp211
g8
F0.5
sg9
L1L
sg10
L300L
ssF16.0
(dp212
g8
F0.75
sg9
L1L
sg10
L300L
ssF17.0
(dp213
g8
F0.75
sg9
L1L
sg10
L300L
ssF18.0
(dp214
g8
F0.25
sg9
L1L
sg10
L300L
ssF19.0
(dp215
g8
F0.75
sg9
L1L
sg10
L300L
ssF20.0
(dp216
g8
F0.5
sg9
L1L
sg10
L300L
ssssg109
(dp217
g5
(dp218
g8
F0.05
sg9
L1L
sg10
L300L
sssg112
(dp219
g5
(dp220
g8
F0.05
sg9
L1L
sg10
L300L
sssg115
(dp221
g5
(dp222
g8
F0.25
sg9
L10L
sg10
L300L
sssg118
(dp223
g5
(dp224
g8
F0.25
sg9
L20L
sg10
L300L
ssssVbpic2015_5
p225
(dp226
g3
(dp227
g5
(dp228
F1.0
(dp229
g8
F0.25
sg9
L1L
sg10
L300L
ssF2.0
(dp230
g8
F0.5
sg9
L1L
sg10
L300L
ssF3.0
(dp231
g8
F0.25
sg9
L1L
sg10
L300L
ssF4.0
(dp232
g8
F0.25
sg9
L1L
sg10
L300L
ssF5.0
(dp233
g8
F0.25
sg9
L1L
sg10
L300L
ssF6.0
(dp234
g8
F0.25
sg9
L1L
sg10
L300L
ssF7.0
(dp235
g8
F0.75
sg9
L1L
sg10
L300L
ssF8.0
(dp236
g8
F0.25
sg9
L1L
sg10
L300L
ssF9.0
(dp237
g8
F0.5
sg9
L1L
sg10
L300L
ssF10.0
(dp238
g8
F0.75
sg9
L1L
sg10
L300L
ssF11.0
(dp239
g8
F0.25
sg9
L1L
sg10
L300L
ssF12.0
(dp240
g8
F0.25
sg9
L1L
sg10
L300L
ssF13.0
(dp241
g8
F0.5
sg9
L1L
sg10
L300L
ssF14.0
(dp242
g8
F0.5
sg9
L1L
sg10
L300L
ssF15.0
(dp243
g8
F0.25
sg9
L1L
sg10
L300L
ssF16.0
(dp244
g8
F0.1
sg9
L1L
sg10
L300L
ssF17.0
(dp245
g8
g73
sg9
L1L
sg10
L300L
ssF18.0
(dp246
g8
g73
sg9
L1L
sg10
L300L
ssF19.0
(dp247
g8
F0.05
sg9
L1L
sg10
L300L
ssF20.0
(dp248
g8
F0.05
sg9
L1L
sg10
L300L
ssssg30
(dp249
g5
(dp250
F1.0
(dp251
g8
F0.25
sg9
L1L
sg10
L300L
ssF2.0
(dp252
g8
F0.25
sg9
L1L
sg10
L300L
ssF3.0
(dp253
g8
F0.25
sg9
L1L
sg10
L300L
ssF4.0
(dp254
g8
F0.25
sg9
L1L
sg10
L300L
ssF5.0
(dp255
g8
F0.25
sg9
L1L
sg10
L300L
ssF6.0
(dp256
g8
F0.25
sg9
L1L
sg10
L300L
ssF7.0
(dp257
g8
F0.5
sg9
L1L
sg10
L300L
ssF8.0
(dp258
g8
F0.25
sg9
L1L
sg10
L300L
ssF9.0
(dp259
g8
F0.5
sg9
L1L
sg10
L300L
ssF10.0
(dp260
g8
F0.25
sg9
L1L
sg10
L300L
ssF11.0
(dp261
g8
F0.25
sg9
L1L
sg10
L300L
ssF12.0
(dp262
g8
F0.25
sg9
L1L
sg10
L300L
ssF13.0
(dp263
g8
F0.75
sg9
L1L
sg10
L300L
ssF14.0
(dp264
g8
F0.1
sg9
L1L
sg10
L300L
ssF15.0
(dp265
g8
F0.1
sg9
L1L
sg10
L300L
ssF16.0
(dp266
g8
F0.1
sg9
L1L
sg10
L300L
ssF17.0
(dp267
g8
g73
sg9
L1L
sg10
L300L
ssF18.0
(dp268
g8
F0.05
sg9
L1L
sg10
L300L
ssF19.0
(dp269
g8
F0.05
sg9
L1L
sg10
L300L
ssF20.0
(dp270
g8
g73
sg9
L1L
sg10
L300L
ssssg53
(dp271
g5
(dp272
g8
g73
sg9
L1L
sg10
L300L
sssg56
(dp273
g5
(dp274
g8
F0.1
sg9
L1L
sg10
L300L
sssg59
(dp275
g5
(dp276
F1.0
(dp277
g8
F0.1
sg9
L1L
sg10
L300L
ssF2.0
(dp278
g8
F0.25
sg9
L1L
sg10
L300L
ssF3.0
(dp279
g8
F0.1
sg9
L1L
sg10
L300L
ssF4.0
(dp280
g8
F0.1
sg9
L1L
sg10
L300L
ssF5.0
(dp281
g8
F0.25
sg9
L1L
sg10
L300L
ssF6.0
(dp282
g8
F0.25
sg9
L1L
sg10
L300L
ssF7.0
(dp283
g8
F0.5
sg9
L1L
sg10
L300L
ssF8.0
(dp284
g8
F0.25
sg9
L1L
sg10
L300L
ssF9.0
(dp285
g8
F0.25
sg9
L1L
sg10
L300L
ssF10.0
(dp286
g8
F0.25
sg9
L1L
sg10
L300L
ssF11.0
(dp287
g8
F0.25
sg9
L1L
sg10
L300L
ssF12.0
(dp288
g8
F0.1
sg9
L1L
sg10
L300L
ssF13.0
(dp289
g8
F0.25
sg9
L1L
sg10
L300L
ssF14.0
(dp290
g8
F0.05
sg9
L1L
sg10
L300L
ssF15.0
(dp291
g8
g73
sg9
L1L
sg10
L300L
ssF16.0
(dp292
g8
F0.1
sg9
L1L
sg10
L300L
ssF17.0
(dp293
g8
F0.05
sg9
L1L
sg10
L300L
ssF18.0
(dp294
g8
F0.1
sg9
L1L
sg10
L300L
ssF19.0
(dp295
g8
F0.05
sg9
L1L
sg10
L300L
ssF20.0
(dp296
g8
F0.05
sg9
L1L
sg10
L300L
ssssg83
(dp297
g5
(dp298
g8
F0.1
sg9
L2L
sg10
L300L
sssg86
(dp299
g5
(dp300
F1.0
(dp301
g8
F0.1
sg9
L1L
sg10
L300L
ssF2.0
(dp302
g8
g73
sg9
L1L
sg10
L300L
ssF3.0
(dp303
g8
F0.1
sg9
L1L
sg10
L300L
ssF4.0
(dp304
g8
F0.25
sg9
L1L
sg10
L300L
ssF5.0
(dp305
g8
F0.1
sg9
L1L
sg10
L300L
ssF6.0
(dp306
g8
F0.25
sg9
L1L
sg10
L300L
ssF7.0
(dp307
g8
F0.25
sg9
L1L
sg10
L300L
ssF8.0
(dp308
g8
F0.25
sg9
L1L
sg10
L300L
ssF9.0
(dp309
g8
g73
sg9
L1L
sg10
L300L
ssF10.0
(dp310
g8
F0.25
sg9
L1L
sg10
L300L
ssF11.0
(dp311
g8
F0.25
sg9
L1L
sg10
L300L
ssF12.0
(dp312
g8
F0.25
sg9
L1L
sg10
L300L
ssF13.0
(dp313
g8
g73
sg9
L1L
sg10
L300L
ssF14.0
(dp314
g8
F0.1
sg9
L1L
sg10
L300L
ssF15.0
(dp315
g8
F0.1
sg9
L1L
sg10
L300L
ssF16.0
(dp316
g8
F0.75
sg9
L1L
sg10
L300L
ssF17.0
(dp317
g8
g73
sg9
L1L
sg10
L300L
ssF18.0
(dp318
g8
g73
sg9
L1L
sg10
L300L
ssF19.0
(dp319
g8
F0.5
sg9
L1L
sg10
L300L
ssF20.0
(dp320
g8
F0.25
sg9
L1L
sg10
L300L
ssssg109
(dp321
g5
(dp322
g8
g73
sg9
L1L
sg10
L300L
sssg112
(dp323
g5
(dp324
g8
F0.05
sg9
L1L
sg10
L300L
sssg115
(dp325
g5
(dp326
g8
F0.1
sg9
L2L
sg10
L300L
sssg118
(dp327
g5
(dp328
g8
F0.05
sg9
L2L
sg10
L300L
ssssVbpic2017
p329
(dp330
g59
(dp331
g5
(dp332
F1.0
(dp333
g8
g73
sg9
L1L
sg10
L300L
ssF2.0
(dp334
g8
g73
sg9
L1L
sg10
L300L
ssF3.0
(dp335
g8
g73
sg9
L1L
sg10
L300L
ssF4.0
(dp336
g8
F0.25
sg9
L1L
sg10
L300L
ssF5.0
(dp337
g8
F0.25
sg9
L1L
sg10
L300L
ssF6.0
(dp338
g8
F0.1
sg9
L1L
sg10
L300L
ssF7.0
(dp339
g8
F0.25
sg9
L1L
sg10
L300L
ssF8.0
(dp340
g8
F0.25
sg9
L1L
sg10
L300L
ssF9.0
(dp341
g8
F0.25
sg9
L1L
sg10
L300L
ssF10.0
(dp342
g8
F0.5
sg9
L1L
sg10
L300L
ssF11.0
(dp343
g8
F0.5
sg9
L1L
sg10
L300L
ssF12.0
(dp344
g8
F0.25
sg9
L1L
sg10
L300L
ssF13.0
(dp345
g8
F0.5
sg9
L1L
sg10
L300L
ssF14.0
(dp346
g8
F0.5
sg9
L1L
sg10
L300L
ssF15.0
(dp347
g8
F0.5
sg9
L1L
sg10
L300L
ssF16.0
(dp348
g8
F0.5
sg9
L1L
sg10
L300L
ssF17.0
(dp349
g8
F0.5
sg9
L1L
sg10
L300L
ssF18.0
(dp350
g8
F0.25
sg9
L1L
sg10
L300L
ssF19.0
(dp351
g8
F0.5
sg9
L1L
sg10
L300L
ssF20.0
(dp352
g8
F0.75
sg9
L1L
sg10
L300L
ssssg53
(dp353
g5
(dp354
g8
F0.25
sg9
L1L
sg10
L300L
sssg56
(dp355
g5
(dp356
g8
F0.1
sg9
L1L
sg10
L300L
sssg30
(dp357
g5
(dp358
F1.0
(dp359
g8
F0.75
sg9
L1L
sg10
L300L
ssF2.0
(dp360
g8
g73
sg9
L1L
sg10
L300L
ssF3.0
(dp361
g8
F0.1
sg9
L1L
sg10
L300L
ssF4.0
(dp362
g8
F0.25
sg9
L1L
sg10
L300L
ssF5.0
(dp363
g8
F0.1
sg9
L1L
sg10
L300L
ssF6.0
(dp364
g8
F0.1
sg9
L1L
sg10
L300L
ssF7.0
(dp365
g8
F0.25
sg9
L1L
sg10
L300L
ssF8.0
(dp366
g8
F0.25
sg9
L1L
sg10
L300L
ssF9.0
(dp367
g8
F0.25
sg9
L1L
sg10
L300L
ssF10.0
(dp368
g8
F0.5
sg9
L1L
sg10
L300L
ssF11.0
(dp369
g8
F0.25
sg9
L1L
sg10
L300L
ssF12.0
(dp370
g8
F0.75
sg9
L1L
sg10
L300L
ssF13.0
(dp371
g8
F0.5
sg9
L1L
sg10
L300L
ssF14.0
(dp372
g8
F0.75
sg9
L1L
sg10
L300L
ssF15.0
(dp373
g8
F0.75
sg9
L1L
sg10
L300L
ssF16.0
(dp374
g8
F0.75
sg9
L1L
sg10
L300L
ssF17.0
(dp375
g8
F0.75
sg9
L1L
sg10
L300L
ssF18.0
(dp376
g8
F0.75
sg9
L1L
sg10
L300L
ssF19.0
(dp377
g8
F0.75
sg9
L1L
sg10
L300L
ssF20.0
(dp378
g8
F0.75
sg9
L1L
sg10
L300L
ssssg86
(dp379
g5
(dp380
F1.0
(dp381
g8
g73
sg9
L1L
sg10
L300L
ssF2.0
(dp382
g8
F0.1
sg9
L1L
sg10
L300L
ssF3.0
(dp383
g8
F0.1
sg9
L1L
sg10
L300L
ssF4.0
(dp384
g8
F0.1
sg9
L1L
sg10
L300L
ssF5.0
(dp385
g8
g73
sg9
L1L
sg10
L300L
ssF6.0
(dp386
g8
F0.25
sg9
L1L
sg10
L300L
ssF7.0
(dp387
g8
F0.25
sg9
L1L
sg10
L300L
ssF8.0
(dp388
g8
F0.25
sg9
L1L
sg10
L300L
ssF9.0
(dp389
g8
F0.25
sg9
L1L
sg10
L300L
ssF10.0
(dp390
g8
g73
sg9
L1L
sg10
L300L
ssF11.0
(dp391
g8
F0.25
sg9
L1L
sg10
L300L
ssF12.0
(dp392
g8
g73
sg9
L1L
sg10
L300L
ssF13.0
(dp393
g8
F0.25
sg9
L1L
sg10
L300L
ssF14.0
(dp394
g8
F0.25
sg9
L1L
sg10
L300L
ssF15.0
(dp395
g8
F0.25
sg9
L1L
sg10
L300L
ssF16.0
(dp396
g8
F0.25
sg9
L1L
sg10
L300L
ssF17.0
(dp397
g8
F0.25
sg9
L1L
sg10
L300L
ssF18.0
(dp398
g8
F0.25
sg9
L1L
sg10
L300L
ssF19.0
(dp399
g8
F0.25
sg9
L1L
sg10
L300L
ssF20.0
(dp400
g8
F0.25
sg9
L1L
sg10
L300L
ssssg3
(dp401
g5
(dp402
F1.0
(dp403
g8
F0.75
sg9
L1L
sg10
L300L
ssF2.0
(dp404
g8
F0.05
sg9
L1L
sg10
L300L
ssF3.0
(dp405
g8
g73
sg9
L1L
sg10
L300L
ssF4.0
(dp406
g8
g73
sg9
L1L
sg10
L300L
ssF5.0
(dp407
g8
F0.25
sg9
L1L
sg10
L300L
ssF6.0
(dp408
g8
F0.25
sg9
L1L
sg10
L300L
ssF7.0
(dp409
g8
F0.25
sg9
L1L
sg10
L300L
ssF8.0
(dp410
g8
F0.5
sg9
L1L
sg10
L300L
ssF9.0
(dp411
g8
F0.25
sg9
L1L
sg10
L300L
ssF10.0
(dp412
g8
F0.75
sg9
L1L
sg10
L300L
ssF11.0
(dp413
g8
F0.25
sg9
L1L
sg10
L300L
ssF12.0
(dp414
g8
F0.5
sg9
L1L
sg10
L300L
ssF13.0
(dp415
g8
F0.75
sg9
L1L
sg10
L300L
ssF14.0
(dp416
g8
F0.75
sg9
L1L
sg10
L300L
ssF15.0
(dp417
g8
F0.75
sg9
L1L
sg10
L300L
ssF16.0
(dp418
g8
F0.75
sg9
L1L
sg10
L300L
ssF17.0
(dp419
g8
F0.75
sg9
L1L
sg10
L300L
ssF18.0
(dp420
g8
F0.75
sg9
L1L
sg10
L300L
ssF19.0
(dp421
g8
F0.75
sg9
L1L
sg10
L300L
ssF20.0
(dp422
g8
F0.75
sg9
L1L
sg10
L300L
ssssg112
(dp423
g5
(dp424
g8
g73
sg9
L1L
sg10
L300L
ssssVbpic2015_3
p425
(dp426
g3
(dp427
g5
(dp428
F1.0
(dp429
g8
F0.25
sg9
L1L
sg10
L300L
ssF2.0
(dp430
g8
F0.1
sg9
L1L
sg10
L300L
ssF3.0
(dp431
g8
F0.25
sg9
L1L
sg10
L300L
ssF4.0
(dp432
g8
F0.5
sg9
L1L
sg10
L300L
ssF5.0
(dp433
g8
F0.25
sg9
L1L
sg10
L300L
ssF6.0
(dp434
g8
F0.5
sg9
L1L
sg10
L300L
ssF7.0
(dp435
g8
F0.5
sg9
L1L
sg10
L300L
ssF8.0
(dp436
g8
F0.5
sg9
L1L
sg10
L300L
ssF9.0
(dp437
g8
F0.25
sg9
L1L
sg10
L300L
ssF10.0
(dp438
g8
F0.1
sg9
L1L
sg10
L300L
ssF11.0
(dp439
g8
F0.25
sg9
L1L
sg10
L300L
ssF12.0
(dp440
g8
F0.25
sg9
L1L
sg10
L300L
ssF13.0
(dp441
g8
F0.25
sg9
L1L
sg10
L300L
ssF14.0
(dp442
g8
F0.25
sg9
L1L
sg10
L300L
ssF15.0
(dp443
g8
g73
sg9
L1L
sg10
L300L
ssF16.0
(dp444
g8
g73
sg9
L1L
sg10
L300L
ssF17.0
(dp445
g8
F0.05
sg9
L1L
sg10
L300L
ssF18.0
(dp446
g8
g73
sg9
L1L
sg10
L300L
ssF19.0
(dp447
g8
F0.1
sg9
L1L
sg10
L300L
ssF20.0
(dp448
g8
F0.1
sg9
L1L
sg10
L300L
ssssg30
(dp449
g5
(dp450
F1.0
(dp451
g8
F0.1
sg9
L1L
sg10
L300L
ssF2.0
(dp452
g8
F0.25
sg9
L1L
sg10
L300L
ssF3.0
(dp453
g8
F0.5
sg9
L1L
sg10
L300L
ssF4.0
(dp454
g8
F0.25
sg9
L1L
sg10
L300L
ssF5.0
(dp455
g8
F0.25
sg9
L1L
sg10
L300L
ssF6.0
(dp456
g8
F0.5
sg9
L1L
sg10
L300L
ssF7.0
(dp457
g8
F0.75
sg9
L1L
sg10
L300L
ssF8.0
(dp458
g8
F0.5
sg9
L1L
sg10
L300L
ssF9.0
(dp459
g8
g73
sg9
L1L
sg10
L300L
ssF10.0
(dp460
g8
F0.25
sg9
L1L
sg10
L300L
ssF11.0
(dp461
g8
F0.1
sg9
L1L
sg10
L300L
ssF12.0
(dp462
g8
F0.1
sg9
L1L
sg10
L300L
ssF13.0
(dp463
g8
F0.1
sg9
L1L
sg10
L300L
ssF14.0
(dp464
g8
F0.1
sg9
L1L
sg10
L300L
ssF15.0
(dp465
g8
F0.05
sg9
L1L
sg10
L300L
ssF16.0
(dp466
g8
F0.1
sg9
L1L
sg10
L300L
ssF17.0
(dp467
g8
F0.1
sg9
L1L
sg10
L300L
ssF18.0
(dp468
g8
F0.1
sg9
L1L
sg10
L300L
ssF19.0
(dp469
g8
F0.05
sg9
L1L
sg10
L300L
ssF20.0
(dp470
g8
F0.1
sg9
L1L
sg10
L300L
ssssg53
(dp471
g5
(dp472
g8
F0.1
sg9
L1L
sg10
L300L
sssg56
(dp473
g5
(dp474
g8
F0.1
sg9
L1L
sg10
L300L
sssg59
(dp475
g5
(dp476
F1.0
(dp477
g8
F0.05
sg9
L1L
sg10
L300L
ssF2.0
(dp478
g8
g73
sg9
L1L
sg10
L300L
ssF3.0
(dp479
g8
F0.25
sg9
L1L
sg10
L300L
ssF4.0
(dp480
g8
F0.25
sg9
L1L
sg10
L300L
ssF5.0
(dp481
g8
F0.25
sg9
L1L
sg10
L300L
ssF6.0
(dp482
g8
F0.5
sg9
L1L
sg10
L300L
ssF7.0
(dp483
g8
F0.25
sg9
L1L
sg10
L300L
ssF8.0
(dp484
g8
F0.25
sg9
L1L
sg10
L300L
ssF9.0
(dp485
g8
F0.25
sg9
L1L
sg10
L300L
ssF10.0
(dp486
g8
F0.25
sg9
L1L
sg10
L300L
ssF11.0
(dp487
g8
F0.25
sg9
L1L
sg10
L300L
ssF12.0
(dp488
g8
F0.1
sg9
L1L
sg10
L300L
ssF13.0
(dp489
g8
F0.05
sg9
L1L
sg10
L300L
ssF14.0
(dp490
g8
F0.1
sg9
L1L
sg10
L300L
ssF15.0
(dp491
g8
F0.05
sg9
L1L
sg10
L300L
ssF16.0
(dp492
g8
F0.1
sg9
L1L
sg10
L300L
ssF17.0
(dp493
g8
g73
sg9
L1L
sg10
L300L
ssF18.0
(dp494
g8
F0.05
sg9
L1L
sg10
L300L
ssF19.0
(dp495
g8
g73
sg9
L1L
sg10
L300L
ssF20.0
(dp496
g8
g73
sg9
L1L
sg10
L300L
ssssg83
(dp497
g5
(dp498
g8
F0.1
sg9
L2L
sg10
L300L
sssg86
(dp499
g5
(dp500
F1.0
(dp501
g8
F0.05
sg9
L1L
sg10
L300L
ssF2.0
(dp502
g8
g73
sg9
L1L
sg10
L300L
ssF3.0
(dp503
g8
F0.25
sg9
L1L
sg10
L300L
ssF4.0
(dp504
g8
g73
sg9
L1L
sg10
L300L
ssF5.0
(dp505
g8
F0.25
sg9
L1L
sg10
L300L
ssF6.0
(dp506
g8
F0.25
sg9
L1L
sg10
L300L
ssF7.0
(dp507
g8
g73
sg9
L1L
sg10
L300L
ssF8.0
(dp508
g8
g73
sg9
L1L
sg10
L300L
ssF9.0
(dp509
g8
F0.05
sg9
L1L
sg10
L300L
ssF10.0
(dp510
g8
g73
sg9
L1L
sg10
L300L
ssF11.0
(dp511
g8
g73
sg9
L1L
sg10
L300L
ssF12.0
(dp512
g8
g73
sg9
L1L
sg10
L300L
ssF13.0
(dp513
g8
g73
sg9
L1L
sg10
L300L
ssF14.0
(dp514
g8
F0.1
sg9
L1L
sg10
L300L
ssF15.0
(dp515
g8
g73
sg9
L1L
sg10
L300L
ssF16.0
(dp516
g8
F0.1
sg9
L1L
sg10
L300L
ssF17.0
(dp517
g8
F0.25
sg9
L1L
sg10
L300L
ssF18.0
(dp518
g8
F0.25
sg9
L1L
sg10
L300L
ssF19.0
(dp519
g8
F0.1
sg9
L1L
sg10
L300L
ssF20.0
(dp520
g8
g73
sg9
L1L
sg10
L300L
ssssg109
(dp521
g5
(dp522
g8
F0.05
sg9
L1L
sg10
L300L
sssg112
(dp523
g5
(dp524
g8
g73
sg9
L1L
sg10
L300L
sssg115
(dp525
g5
(dp526
g8
F0.05
sg9
L2L
sg10
L300L
sssg118
(dp527
g5
(dp528
g8
F0.05
sg9
L5L
sg10
L300L
ssssVbpic2011
p529
(dp530
g53
(dp531
g5
(dp532
g8
F0.25
sg9
L1L
sg10
L300L
sssg56
(dp533
g5
(dp534
g8
F0.25
sg9
L1L
sg10
L300L
sssg83
(dp535
g5
(dp536
g8
F0.5
sg9
L2L
sg10
L300L
sssg109
(dp537
g5
(dp538
g8
F0.25
sg9
L1L
sg10
L300L
sssg112
(dp539
g5
(dp540
g8
F0.1
sg9
L1L
sg10
L300L
sssg115
(dp541
g5
(dp542
g8
F0.5
sg9
L2L
sg10
L300L
sssg118
(dp543
g5
(dp544
g8
F0.1
sg9
L2L
sg10
L300L
ssssVbpic2015_2
p545
(dp546
g3
(dp547
g5
(dp548
F1.0
(dp549
g8
F0.1
sg9
L1L
sg10
L300L
ssF2.0
(dp550
g8
F0.5
sg9
L1L
sg10
L300L
ssF3.0
(dp551
g8
F0.5
sg9
L1L
sg10
L300L
ssF4.0
(dp552
g8
F0.5
sg9
L1L
sg10
L300L
ssF5.0
(dp553
g8
F0.25
sg9
L1L
sg10
L300L
ssF6.0
(dp554
g8
F0.25
sg9
L1L
sg10
L300L
ssF7.0
(dp555
g8
F0.5
sg9
L1L
sg10
L300L
ssF8.0
(dp556
g8
F0.25
sg9
L1L
sg10
L300L
ssF9.0
(dp557
g8
F0.1
sg9
L1L
sg10
L300L
ssF10.0
(dp558
g8
F0.25
sg9
L1L
sg10
L300L
ssF11.0
(dp559
g8
F0.25
sg9
L1L
sg10
L300L
ssF12.0
(dp560
g8
g73
sg9
L1L
sg10
L300L
ssF13.0
(dp561
g8
F0.05
sg9
L1L
sg10
L300L
ssF14.0
(dp562
g8
F0.05
sg9
L1L
sg10
L300L
ssF15.0
(dp563
g8
F0.1
sg9
L1L
sg10
L300L
ssF16.0
(dp564
g8
F0.05
sg9
L1L
sg10
L300L
ssF17.0
(dp565
g8
g73
sg9
L1L
sg10
L300L
ssF18.0
(dp566
g8
F0.1
sg9
L1L
sg10
L300L
ssF19.0
(dp567
g8
F0.1
sg9
L1L
sg10
L300L
ssF20.0
(dp568
g8
F0.1
sg9
L1L
sg10
L300L
ssssg30
(dp569
g5
(dp570
F1.0
(dp571
g8
g73
sg9
L1L
sg10
L300L
ssF2.0
(dp572
g8
F0.5
sg9
L1L
sg10
L300L
ssF3.0
(dp573
g8
F0.25
sg9
L1L
sg10
L300L
ssF4.0
(dp574
g8
F0.25
sg9
L1L
sg10
L300L
ssF5.0
(dp575
g8
F0.25
sg9
L1L
sg10
L300L
ssF6.0
(dp576
g8
F0.5
sg9
L1L
sg10
L300L
ssF7.0
(dp577
g8
F0.5
sg9
L1L
sg10
L300L
ssF8.0
(dp578
g8
F0.1
sg9
L1L
sg10
L300L
ssF9.0
(dp579
g8
F0.5
sg9
L1L
sg10
L300L
ssF10.0
(dp580
g8
F0.25
sg9
L1L
sg10
L300L
ssF11.0
(dp581
g8
F0.25
sg9
L1L
sg10
L300L
ssF12.0
(dp582
g8
F0.05
sg9
L1L
sg10
L300L
ssF13.0
(dp583
g8
F0.05
sg9
L1L
sg10
L300L
ssF14.0
(dp584
g8
g73
sg9
L1L
sg10
L300L
ssF15.0
(dp585
g8
F0.1
sg9
L1L
sg10
L300L
ssF16.0
(dp586
g8
g73
sg9
L1L
sg10
L300L
ssF17.0
(dp587
g8
F0.05
sg9
L1L
sg10
L300L
ssF18.0
(dp588
g8
F0.05
sg9
L1L
sg10
L300L
ssF19.0
(dp589
g8
g73
sg9
L1L
sg10
L300L
ssF20.0
(dp590
g8
g73
sg9
L1L
sg10
L300L
ssssg53
(dp591
g5
(dp592
g8
F0.1
sg9
L1L
sg10
L300L
sssg56
(dp593
g5
(dp594
g8
F0.1
sg9
L1L
sg10
L300L
sssg59
(dp595
g5
(dp596
F1.0
(dp597
g8
F0.25
sg9
L1L
sg10
L300L
ssF2.0
(dp598
g8
g73
sg9
L1L
sg10
L300L
ssF3.0
(dp599
g8
F0.25
sg9
L1L
sg10
L300L
ssF4.0
(dp600
g8
F0.25
sg9
L1L
sg10
L300L
ssF5.0
(dp601
g8
F0.25
sg9
L1L
sg10
L300L
ssF6.0
(dp602
g8
F0.25
sg9
L1L
sg10
L300L
ssF7.0
(dp603
g8
F0.25
sg9
L1L
sg10
L300L
ssF8.0
(dp604
g8
F0.25
sg9
L1L
sg10
L300L
ssF9.0
(dp605
g8
F0.25
sg9
L1L
sg10
L300L
ssF10.0
(dp606
g8
F0.25
sg9
L1L
sg10
L300L
ssF11.0
(dp607
g8
F0.25
sg9
L1L
sg10
L300L
ssF12.0
(dp608
g8
F0.05
sg9
L1L
sg10
L300L
ssF13.0
(dp609
g8
F0.1
sg9
L1L
sg10
L300L
ssF14.0
(dp610
g8
F0.5
sg9
L1L
sg10
L300L
ssF15.0
(dp611
g8
F0.05
sg9
L1L
sg10
L300L
ssF16.0
(dp612
g8
F0.25
sg9
L1L
sg10
L300L
ssF17.0
(dp613
g8
F0.25
sg9
L1L
sg10
L300L
ssF18.0
(dp614
g8
F0.05
sg9
L1L
sg10
L300L
ssF19.0
(dp615
g8
F0.05
sg9
L1L
sg10
L300L
ssF20.0
(dp616
g8
F0.05
sg9
L1L
sg10
L300L
ssssg83
(dp617
g5
(dp618
g8
g73
sg9
L2L
sg10
L300L
sssg86
(dp619
g5
(dp620
F1.0
(dp621
g8
F0.25
sg9
L1L
sg10
L300L
ssF2.0
(dp622
g8
F0.05
sg9
L1L
sg10
L300L
ssF3.0
(dp623
g8
g73
sg9
L1L
sg10
L300L
ssF4.0
(dp624
g8
g73
sg9
L1L
sg10
L300L
ssF5.0
(dp625
g8
F0.25
sg9
L1L
sg10
L300L
ssF6.0
(dp626
g8
F0.1
sg9
L1L
sg10
L300L
ssF7.0
(dp627
g8
g73
sg9
L1L
sg10
L300L
ssF8.0
(dp628
g8
g73
sg9
L1L
sg10
L300L
ssF9.0
(dp629
g8
F0.25
sg9
L1L
sg10
L300L
ssF10.0
(dp630
g8
F0.25
sg9
L1L
sg10
L300L
ssF11.0
(dp631
g8
g73
sg9
L1L
sg10
L300L
ssF12.0
(dp632
g8
F0.25
sg9
L1L
sg10
L300L
ssF13.0
(dp633
g8
F0.1
sg9
L1L
sg10
L300L
ssF14.0
(dp634
g8
F0.25
sg9
L1L
sg10
L300L
ssF15.0
(dp635
g8
F0.25
sg9
L1L
sg10
L300L
ssF16.0
(dp636
g8
F0.25
sg9
L1L
sg10
L300L
ssF17.0
(dp637
g8
F0.25
sg9
L1L
sg10
L300L
ssF18.0
(dp638
g8
F0.1
sg9
L1L
sg10
L300L
ssF19.0
(dp639
g8
F0.05
sg9
L1L
sg10
L300L
ssF20.0
(dp640
g8
F0.05
sg9
L1L
sg10
L300L
ssssg109
(dp641
g5
(dp642
g8
F0.05
sg9
L1L
sg10
L300L
sssg112
(dp643
g5
(dp644
g8
F0.05
sg9
L1L
sg10
L300L
sssg115
(dp645
g5
(dp646
g8
F0.1
sg9
L2L
sg10
L300L
sssg118
(dp647
g5
(dp648
g8
F0.05
sg9
L2L
sg10
L300L
ssssVsepsis
p649
(dp650
Vstate_laststate
p651
(dp652
g5
(dp653
g8
F0.1
sg9
L1L
sg10
L300L
sssg56
(dp654
g5
(dp655
g8
g73
sg9
L1L
sg10
L300L
sssVstate_combined
p656
(dp657
g5
(dp658
g8
F0.05
sg9
L1L
sg10
L300L
sssg3
(dp659
g5
(dp660
F1.0
(dp661
g8
F0.05
sg9
L1L
sg10
L300L
ssF2.0
(dp662
g8
F0.05
sg9
L1L
sg10
L300L
ssF3.0
(dp663
g8
g73
sg9
L1L
sg10
L300L
ssF4.0
(dp664
g8
F0.5
sg9
L1L
sg10
L300L
ssF5.0
(dp665
g8
F0.1
sg9
L1L
sg10
L300L
ssF6.0
(dp666
g8
g73
sg9
L1L
sg10
L300L
ssssg109
(dp667
g5
(dp668
g8
g73
sg9
L1L
sg10
L300L
sssg59
(dp669
g5
(dp670
F1.0
(dp671
g8
F0.05
sg9
L1L
sg10
L300L
ssF2.0
(dp672
g8
F0.05
sg9
L1L
sg10
L300L
ssF3.0
(dp673
g8
F0.05
sg9
L1L
sg10
L300L
ssF4.0
(dp674
g8
F0.05
sg9
L1L
sg10
L300L
ssF5.0
(dp675
g8
F0.05
sg9
L1L
sg10
L300L
ssF6.0
(dp676
g8
F0.1
sg9
L1L
sg10
L300L
ssssg53
(dp677
g5
(dp678
g8
g73
sg9
L1L
sg10
L300L
sssVstate_index
p679
(dp680
g5
(dp681
g8
g73
sg9
L1L
sg10
L300L
sssg112
(dp682
g5
(dp683
g8
F0.05
sg9
L1L
sg10
L300L
sssg30
(dp684
g5
(dp685
F1.0
(dp686
g8
F0.05
sg9
L1L
sg10
L300L
ssF2.0
(dp687
g8
F0.05
sg9
L1L
sg10
L300L
ssF3.0
(dp688
g8
F0.05
sg9
L1L
sg10
L300L
ssF4.0
(dp689
g8
F0.5
sg9
L1L
sg10
L300L
ssF5.0
(dp690
g8
F0.05
sg9
L1L
sg10
L300L
ssF6.0
(dp691
g8
g73
sg9
L1L
sg10
L300L
ssssVstate_agg
p692
(dp693
g5
(dp694
g8
F0.05
sg9
L1L
sg10
L300L
sssg86
(dp695
g5
(dp696
F1.0
(dp697
g8
F0.05
sg9
L1L
sg10
L300L
ssF2.0
(dp698
g8
F0.05
sg9
L1L
sg10
L300L
ssF3.0
(dp699
g8
F0.05
sg9
L1L
sg10
L300L
ssF4.0
(dp700
g8
F0.05
sg9
L1L
sg10
L300L
ssF5.0
(dp701
g8
g73
sg9
L1L
sg10
L300L
ssF6.0
(dp702
g8
F0.75
sg9
L1L
sg10
L300L
sssssVtraffic_fines
p703
(dp704
g109
(dp705
g5
(dp706
g8
F0.25
sg9
L1L
sg10
L300L
ssss.