(dp0
S'bpic2017'
p1
(dp2
S'prefix_agg'
p3
(dp4
S'rf'
p5
(dp6
I1
(dp7
S'max_features'
p8
F0.75
sS'n_estimators'
p9
I300
sS'gbm_learning_rate'
p10
F0.0
sS'n_clusters'
p11
I1
ssI2
(dp12
g8
F0.05
sg9
I300
sg10
F0.0
sg11
I1
ssI3
(dp13
g8
S'sqrt'
p14
sg9
I300
sg10
F0.0
sg11
I1
ssI4
(dp15
g8
F0.1
sg9
I300
sg10
F0.0
sg11
I1
ssI5
(dp16
g8
F0.25
sg9
I300
sg10
F0.0
sg11
I1
ssI6
(dp17
g8
F0.25
sg9
I300
sg10
F0.0
sg11
I1
ssI7
(dp18
g8
F0.25
sg9
I300
sg10
F0.0
sg11
I1
ssI8
(dp19
g8
F0.5
sg9
I300
sg10
F0.0
sg11
I1
ssI9
(dp20
g8
F0.25
sg9
I300
sg10
F0.0
sg11
I1
ssI10
(dp21
g8
F0.75
sg9
I300
sg10
F0.0
sg11
I1
ssI11
(dp22
g8
F0.25
sg9
I300
sg10
F0.0
sg11
I1
ssI12
(dp23
g8
F0.5
sg9
I300
sg10
F0.0
sg11
I1
ssI13
(dp24
g8
F0.75
sg9
I300
sg10
F0.0
sg11
I1
ssI14
(dp25
g8
F0.75
sg9
I300
sg10
F0.0
sg11
I1
ssI15
(dp26
g8
F0.75
sg9
I300
sg10
F0.0
sg11
I1
ssI16
(dp27
g8
F0.75
sg9
I300
sg10
F0.0
sg11
I1
ssI17
(dp28
g8
F0.75
sg9
I300
sg10
F0.0
sg11
I1
ssI18
(dp29
g8
F0.75
sg9
I300
sg10
F0.0
sg11
I1
ssI19
(dp30
g8
F0.75
sg9
I300
sg10
F0.0
sg11
I1
ssI20
(dp31
g8
F0.75
sg9
I300
sg10
F0.0
sg11
I1
ssssS'single_combined'
p32
(dp33
g5
(dp34
g8
F0.1
sg9
I300
sg10
F0.0
sg11
I1
sssS'prefix_combined'
p35
(dp36
g5
(dp37
I1
(dp38
g8
F0.75
sg9
I300
sg10
F0.0
sg11
I1
ssI2
(dp39
g8
g14
sg9
I300
sg10
F0.0
sg11
I1
ssI3
(dp40
g8
F0.1
sg9
I300
sg10
F0.0
sg11
I1
ssI4
(dp41
g8
F0.25
sg9
I300
sg10
F0.0
sg11
I1
ssI5
(dp42
g8
F0.1
sg9
I300
sg10
F0.0
sg11
I1
ssI6
(dp43
g8
F0.1
sg9
I300
sg10
F0.0
sg11
I1
ssI7
(dp44
g8
F0.25
sg9
I300
sg10
F0.0
sg11
I1
ssI8
(dp45
g8
F0.25
sg9
I300
sg10
F0.0
sg11
I1
ssI9
(dp46
g8
F0.25
sg9
I300
sg10
F0.0
sg11
I1
ssI10
(dp47
g8
F0.5
sg9
I300
sg10
F0.0
sg11
I1
ssI11
(dp48
g8
F0.25
sg9
I300
sg10
F0.0
sg11
I1
ssI12
(dp49
g8
F0.75
sg9
I300
sg10
F0.0
sg11
I1
ssI13
(dp50
g8
F0.5
sg9
I300
sg10
F0.0
sg11
I1
ssI14
(dp51
g8
F0.75
sg9
I300
sg10
F0.0
sg11
I1
ssI15
(dp52
g8
F0.75
sg9
I300
sg10
F0.0
sg11
I1
ssI16
(dp53
g8
F0.75
sg9
I300
sg10
F0.0
sg11
I1
ssI17
(dp54
g8
F0.75
sg9
I300
sg10
F0.0
sg11
I1
ssI18
(dp55
g8
F0.75
sg9
I300
sg10
F0.0
sg11
I1
ssI19
(dp56
g8
F0.75
sg9
I300
sg10
F0.0
sg11
I1
ssI20
(dp57
g8
F0.75
sg9
I300
sg10
F0.0
sg11
I1
ssssS'single_agg'
p58
(dp59
g5
(dp60
g8
F0.25
sg9
I300
sg10
F0.0
sg11
I1
sssS'prefix_index'
p61
(dp62
g5
(dp63
I1
(dp64
g8
g14
sg9
I300
sg10
F0.0
sg11
I1
ssI2
(dp65
g8
g14
sg9
I300
sg10
F0.0
sg11
I1
ssI3
(dp66
g8
g14
sg9
I300
sg10
F0.0
sg11
I1
ssI4
(dp67
g8
F0.25
sg9
I300
sg10
F0.0
sg11
I1
ssI5
(dp68
g8
F0.25
sg9
I300
sg10
F0.0
sg11
I1
ssI6
(dp69
g8
F0.1
sg9
I300
sg10
F0.0
sg11
I1
ssI7
(dp70
g8
F0.25
sg9
I300
sg10
F0.0
sg11
I1
ssI8
(dp71
g8
F0.25
sg9
I300
sg10
F0.0
sg11
I1
ssI9
(dp72
g8
F0.25
sg9
I300
sg10
F0.0
sg11
I1
ssI10
(dp73
g8
F0.5
sg9
I300
sg10
F0.0
sg11
I1
ssI11
(dp74
g8
F0.5
sg9
I300
sg10
F0.0
sg11
I1
ssI12
(dp75
g8
F0.25
sg9
I300
sg10
F0.0
sg11
I1
ssI13
(dp76
g8
F0.5
sg9
I300
sg10
F0.0
sg11
I1
ssI14
(dp77
g8
F0.5
sg9
I300
sg10
F0.0
sg11
I1
ssI15
(dp78
g8
F0.5
sg9
I300
sg10
F0.0
sg11
I1
ssI16
(dp79
g8
F0.5
sg9
I300
sg10
F0.0
sg11
I1
ssI17
(dp80
g8
F0.5
sg9
I300
sg10
F0.0
sg11
I1
ssI18
(dp81
g8
F0.25
sg9
I300
sg10
F0.0
sg11
I1
ssI19
(dp82
g8
F0.5
sg9
I300
sg10
F0.0
sg11
I1
ssI20
(dp83
g8
F0.75
sg9
I300
sg10
F0.0
sg11
I1
ssssS'single_laststate'
p84
(dp85
g5
(dp86
g8
g14
sg9
I300
sg10
F0.0
sg11
I1
sssS'prefix_laststate'
p87
(dp88
g5
(dp89
I1
(dp90
g8
g14
sg9
I300
sg10
F0.0
sg11
I1
ssI2
(dp91
g8
F0.1
sg9
I300
sg10
F0.0
sg11
I1
ssI3
(dp92
g8
F0.1
sg9
I300
sg10
F0.0
sg11
I1
ssI4
(dp93
g8
F0.1
sg9
I300
sg10
F0.0
sg11
I1
ssI5
(dp94
g8
g14
sg9
I300
sg10
F0.0
sg11
I1
ssI6
(dp95
g8
F0.25
sg9
I300
sg10
F0.0
sg11
I1
ssI7
(dp96
g8
F0.25
sg9
I300
sg10
F0.0
sg11
I1
ssI8
(dp97
g8
F0.25
sg9
I300
sg10
F0.0
sg11
I1
ssI9
(dp98
g8
F0.25
sg9
I300
sg10
F0.0
sg11
I1
ssI10
(dp99
g8
g14
sg9
I300
sg10
F0.0
sg11
I1
ssI11
(dp100
g8
F0.25
sg9
I300
sg10
F0.0
sg11
I1
ssI12
(dp101
g8
g14
sg9
I300
sg10
F0.0
sg11
I1
ssI13
(dp102
g8
F0.25
sg9
I300
sg10
F0.0
sg11
I1
ssI14
(dp103
g8
F0.25
sg9
I300
sg10
F0.0
sg11
I1
ssI15
(dp104
g8
F0.25
sg9
I300
sg10
F0.0
sg11
I1
ssI16
(dp105
g8
F0.25
sg9
I300
sg10
F0.0
sg11
I1
ssI17
(dp106
g8
F0.25
sg9
I300
sg10
F0.0
sg11
I1
ssI18
(dp107
g8
F0.25
sg9
I300
sg10
F0.0
sg11
I1
ssI19
(dp108
g8
F0.25
sg9
I300
sg10
F0.0
sg11
I1
ssI20
(dp109
g8
F0.25
sg9
I300
sg10
F0.0
sg11
I1
sssssS'bpic2011'
p110
(dp111
S'cluster_agg'
p112
(dp113
g5
(dp114
g8
F0.5
sg9
I300
sg10
F0.0
sg11
I2
sssg32
(dp115
g5
(dp116
g8
F0.25
sg9
I300
sg10
F0.0
sg11
I1
sssg58
(dp117
g5
(dp118
g8
F0.25
sg9
I300
sg10
F0.0
sg11
I1
sssS'cluster_combined'
p119
(dp120
g5
(dp121
g8
F0.5
sg9
I300
sg10
F0.0
sg11
I2
sssS'single_index'
p122
(dp123
g5
(dp124
g8
F0.25
sg9
I300
sg10
F0.0
sg11
I1
sssS'cluster_laststate'
p125
(dp126
g5
(dp127
g8
F0.1
sg9
I300
sg10
F0.0
sg11
I2
sssg84
(dp128
g5
(dp129
g8
F0.1
sg9
I300
sg10
F0.0
sg11
I1
ssssS'sepsis'
p130
(dp131
S'state_agg'
p132
(dp133
g5
(dp134
g8
F0.1
sg9
I300
sg10
F0.0
sg11
I1
ssS'gbm'
p135
(dp136
g8
g14
sg9
I100
sg10
F0.01
sg11
I1
sssS'state_laststate'
p137
(dp138
g5
(dp139
g8
g14
sg9
I300
sg10
F0.0
sg11
I1
ssg135
(dp140
g8
g14
sg9
I100
sg10
F0.01
sg11
I1
sssg112
(dp141
g5
(dp142
g8
g14
sg9
I300
sg10
F0.0
sg11
I20
ssg135
(dp143
g8
g14
sg9
I100
sg10
F0.01
sg11
I20
sssg3
(dp144
g5
(dp145
I1
(dp146
g8
F0.1
sg9
I300
sg10
F0.0
sg11
I1
ssI2
(dp147
g8
g14
sg9
I300
sg10
F0.0
sg11
I1
ssI3
(dp148
g8
g14
sg9
I300
sg10
F0.0
sg11
I1
ssI4
(dp149
g8
F0.5
sg9
I300
sg10
F0.0
sg11
I1
ssI5
(dp150
g8
F0.1
sg9
I300
sg10
F0.0
sg11
I1
ssI6
(dp151
g8
g14
sg9
I300
sg10
F0.0
sg11
I1
sssg135
(dp152
I1
(dp153
g8
F0.75
sg9
I250
sg10
F0.01
sg11
I1
ssI2
(dp154
g8
F0.75
sg9
I250
sg10
F0.01
sg11
I1
ssI3
(dp155
g8
g14
sg9
I100
sg10
F0.01
sg11
I1
ssI4
(dp156
g8
F0.25
sg9
I250
sg10
F0.01
sg11
I1
ssI5
(dp157
g8
g14
sg9
I250
sg10
F0.01
sg11
I1
ssI6
(dp158
g8
F0.25
sg9
I500
sg10
F0.1
sg11
I1
ssssS'state_combined'
p159
(dp160
g5
(dp161
g8
g14
sg9
I300
sg10
F0.0
sg11
I1
ssg135
(dp162
g8
g14
sg9
I100
sg10
F0.01
sg11
I1
sssg87
(dp163
g5
(dp164
I1
(dp165
g8
g14
sg9
I300
sg10
F0.0
sg11
I1
ssI2
(dp166
g8
g14
sg9
I300
sg10
F0.0
sg11
I1
ssI3
(dp167
g8
F0.1
sg9
I300
sg10
F0.0
sg11
I1
ssI4
(dp168
g8
F0.1
sg9
I300
sg10
F0.0
sg11
I1
ssI5
(dp169
g8
F0.5
sg9
I300
sg10
F0.0
sg11
I1
ssI6
(dp170
g8
F0.1
sg9
I300
sg10
F0.0
sg11
I1
sssg135
(dp171
I1
(dp172
g8
g14
sg9
I250
sg10
F0.01
sg11
I1
ssI2
(dp173
g8
g14
sg9
I250
sg10
F0.01
sg11
I1
ssI3
(dp174
g8
g14
sg9
I100
sg10
F0.01
sg11
I1
ssI4
(dp175
g8
F0.25
sg9
I250
sg10
F0.01
sg11
I1
ssI5
(dp176
g8
g14
sg9
I100
sg10
F0.05
sg11
I1
ssI6
(dp177
g8
g14
sg9
I100
sg10
F0.01
sg11
I1
ssssg32
(dp178
g5
(dp179
g8
g14
sg9
I300
sg10
F0.0
sg11
I1
ssg135
(dp180
g8
g14
sg9
I500
sg10
F0.01
sg11
I1
sssg35
(dp181
g5
(dp182
I1
(dp183
g8
g14
sg9
I300
sg10
F0.0
sg11
I1
ssI2
(dp184
g8
g14
sg9
I300
sg10
F0.0
sg11
I1
ssI3
(dp185
g8
g14
sg9
I300
sg10
F0.0
sg11
I1
ssI4
(dp186
g8
F0.75
sg9
I300
sg10
F0.0
sg11
I1
ssI5
(dp187
g8
F0.1
sg9
I300
sg10
F0.0
sg11
I1
ssI6
(dp188
g8
F0.5
sg9
I300
sg10
F0.0
sg11
I1
sssg135
(dp189
I1
(dp190
g8
F0.75
sg9
I250
sg10
F0.01
sg11
I1
ssI2
(dp191
g8
g14
sg9
I250
sg10
F0.01
sg11
I1
ssI3
(dp192
g8
g14
sg9
I100
sg10
F0.01
sg11
I1
ssI4
(dp193
g8
F0.75
sg9
I100
sg10
F0.05
sg11
I1
ssI5
(dp194
g8
F0.25
sg9
I500
sg10
F0.01
sg11
I1
ssI6
(dp195
g8
F0.25
sg9
I250
sg10
F0.01
sg11
I1
ssssg58
(dp196
g5
(dp197
g8
g14
sg9
I300
sg10
F0.0
sg11
I1
ssg135
(dp198
g8
g14
sg9
I100
sg10
F0.05
sg11
I1
sssS'cluster_index'
p199
(dp200
g5
(dp201
g8
g14
sg9
I300
sg10
F0.0
sg11
I20
ssg135
(dp202
g8
F0.25
sg9
I100
sg10
F0.01
sg11
I20
sssg119
(dp203
g5
(dp204
g8
g14
sg9
I300
sg10
F0.0
sg11
I20
ssg135
(dp205
g8
g14
sg9
I100
sg10
F0.01
sg11
I20
sssg122
(dp206
g5
(dp207
g8
F0.1
sg9
I300
sg10
F0.0
sg11
I1
ssg135
(dp208
g8
g14
sg9
I250
sg10
F0.05
sg11
I1
sssg125
(dp209
g5
(dp210
g8
g14
sg9
I300
sg10
F0.0
sg11
I20
ssg135
(dp211
g8
F0.25
sg9
I100
sg10
F0.01
sg11
I20
sssg84
(dp212
g5
(dp213
g8
g14
sg9
I300
sg10
F0.0
sg11
I1
ssg135
(dp214
g8
F0.25
sg9
I100
sg10
F0.05
sg11
I1
sssg61
(dp215
g5
(dp216
I1
(dp217
g8
g14
sg9
I300
sg10
F0.0
sg11
I1
ssI2
(dp218
g8
g14
sg9
I300
sg10
F0.0
sg11
I1
ssI3
(dp219
g8
g14
sg9
I300
sg10
F0.0
sg11
I1
ssI4
(dp220
g8
g14
sg9
I300
sg10
F0.0
sg11
I1
ssI5
(dp221
g8
g14
sg9
I300
sg10
F0.0
sg11
I1
ssI6
(dp222
g8
F0.75
sg9
I300
sg10
F0.0
sg11
I1
sssg135
(dp223
I1
(dp224
g8
g14
sg9
I250
sg10
F0.01
sg11
I1
ssI2
(dp225
g8
g14
sg9
I250
sg10
F0.01
sg11
I1
ssI3
(dp226
g8
g14
sg9
I100
sg10
F0.01
sg11
I1
ssI4
(dp227
g8
F0.75
sg9
I500
sg10
F0.01
sg11
I1
ssI5
(dp228
g8
F0.25
sg9
I100
sg10
F0.05
sg11
I1
ssI6
(dp229
g8
F0.75
sg9
I500
sg10
F0.01
sg11
I1
ssssS'state_index'
p230
(dp231
g5
(dp232
g8
g14
sg9
I300
sg10
F0.0
sg11
I1
ssg135
(dp233
g8
g14
sg9
I100
sg10
F0.01
sg11
I1
ssssS'bpic2015_1'
p234
(dp235
g3
(dp236
g5
(dp237
I1
(dp238
g8
F0.75
sg9
I300
sg10
F0.0
sg11
I1
ssI2
(dp239
g8
F0.75
sg9
I300
sg10
F0.0
sg11
I1
ssI3
(dp240
g8
F0.75
sg9
I300
sg10
F0.0
sg11
I1
ssI4
(dp241
g8
F0.75
sg9
I300
sg10
F0.0
sg11
I1
ssI5
(dp242
g8
F0.75
sg9
I300
sg10
F0.0
sg11
I1
ssI6
(dp243
g8
F0.75
sg9
I300
sg10
F0.0
sg11
I1
ssI7
(dp244
g8
F0.75
sg9
I300
sg10
F0.0
sg11
I1
ssI8
(dp245
g8
F0.25
sg9
I300
sg10
F0.0
sg11
I1
ssI9
(dp246
g8
F0.5
sg9
I300
sg10
F0.0
sg11
I1
ssI10
(dp247
g8
F0.25
sg9
I300
sg10
F0.0
sg11
I1
ssI11
(dp248
g8
F0.5
sg9
I300
sg10
F0.0
sg11
I1
ssI12
(dp249
g8
F0.75
sg9
I300
sg10
F0.0
sg11
I1
ssI13
(dp250
g8
F0.75
sg9
I300
sg10
F0.0
sg11
I1
ssI14
(dp251
g8
F0.75
sg9
I300
sg10
F0.0
sg11
I1
ssI15
(dp252
g8
F0.25
sg9
I300
sg10
F0.0
sg11
I1
ssI16
(dp253
g8
F0.25
sg9
I300
sg10
F0.0
sg11
I1
ssI17
(dp254
g8
F0.5
sg9
I300
sg10
F0.0
sg11
I1
ssI18
(dp255
g8
F0.25
sg9
I300
sg10
F0.0
sg11
I1
ssI19
(dp256
g8
F0.25
sg9
I300
sg10
F0.0
sg11
I1
ssI20
(dp257
g8
F0.5
sg9
I300
sg10
F0.0
sg11
I1
ssssg112
(dp258
g5
(dp259
g8
F0.5
sg9
I300
sg10
F0.0
sg11
I2
sssg61
(dp260
g5
(dp261
I1
(dp262
g8
F0.25
sg9
I300
sg10
F0.0
sg11
I1
ssI2
(dp263
g8
F0.5
sg9
I300
sg10
F0.0
sg11
I1
ssI3
(dp264
g8
F0.25
sg9
I300
sg10
F0.0
sg11
I1
ssI4
(dp265
g8
F0.5
sg9
I300
sg10
F0.0
sg11
I1
ssI5
(dp266
g8
F0.75
sg9
I300
sg10
F0.0
sg11
I1
ssI6
(dp267
g8
F0.75
sg9
I300
sg10
F0.0
sg11
I1
ssI7
(dp268
g8
F0.25
sg9
I300
sg10
F0.0
sg11
I1
ssI8
(dp269
g8
F0.25
sg9
I300
sg10
F0.0
sg11
I1
ssI9
(dp270
g8
F0.25
sg9
I300
sg10
F0.0
sg11
I1
ssI10
(dp271
g8
F0.25
sg9
I300
sg10
F0.0
sg11
I1
ssI11
(dp272
g8
g14
sg9
I300
sg10
F0.0
sg11
I1
ssI12
(dp273
g8
F0.75
sg9
I300
sg10
F0.0
sg11
I1
ssI13
(dp274
g8
F0.75
sg9
I300
sg10
F0.0
sg11
I1
ssI14
(dp275
g8
F0.75
sg9
I300
sg10
F0.0
sg11
I1
ssI15
(dp276
g8
F0.75
sg9
I300
sg10
F0.0
sg11
I1
ssI16
(dp277
g8
F0.75
sg9
I300
sg10
F0.0
sg11
I1
ssI17
(dp278
g8
g14
sg9
I300
sg10
F0.0
sg11
I1
ssI18
(dp279
g8
g14
sg9
I300
sg10
F0.0
sg11
I1
ssI19
(dp280
g8
F0.05
sg9
I300
sg10
F0.0
sg11
I1
ssI20
(dp281
g8
F0.1
sg9
I300
sg10
F0.0
sg11
I1
ssssg32
(dp282
g5
(dp283
g8
F0.5
sg9
I300
sg10
F0.0
sg11
I1
sssg35
(dp284
g5
(dp285
I1
(dp286
g8
F0.75
sg9
I300
sg10
F0.0
sg11
I1
ssI2
(dp287
g8
F0.75
sg9
I300
sg10
F0.0
sg11
I1
ssI3
(dp288
g8
F0.75
sg9
I300
sg10
F0.0
sg11
I1
ssI4
(dp289
g8
F0.75
sg9
I300
sg10
F0.0
sg11
I1
ssI5
(dp290
g8
F0.75
sg9
I300
sg10
F0.0
sg11
I1
ssI6
(dp291
g8
F0.75
sg9
I300
sg10
F0.0
sg11
I1
ssI7
(dp292
g8
F0.75
sg9
I300
sg10
F0.0
sg11
I1
ssI8
(dp293
g8
F0.5
sg9
I300
sg10
F0.0
sg11
I1
ssI9
(dp294
g8
F0.75
sg9
I300
sg10
F0.0
sg11
I1
ssI10
(dp295
g8
F0.1
sg9
I300
sg10
F0.0
sg11
I1
ssI11
(dp296
g8
F0.75
sg9
I300
sg10
F0.0
sg11
I1
ssI12
(dp297
g8
F0.75
sg9
I300
sg10
F0.0
sg11
I1
ssI13
(dp298
g8
F0.75
sg9
I300
sg10
F0.0
sg11
I1
ssI14
(dp299
g8
F0.75
sg9
I300
sg10
F0.0
sg11
I1
ssI15
(dp300
g8
F0.1
sg9
I300
sg10
F0.0
sg11
I1
ssI16
(dp301
g8
F0.25
sg9
I300
sg10
F0.0
sg11
I1
ssI17
(dp302
g8
F0.25
sg9
I300
sg10
F0.0
sg11
I1
ssI18
(dp303
g8
F0.5
sg9
I300
sg10
F0.0
sg11
I1
ssI19
(dp304
g8
F0.1
sg9
I300
sg10
F0.0
sg11
I1
ssI20
(dp305
g8
F0.25
sg9
I300
sg10
F0.0
sg11
I1
ssssg58
(dp306
g5
(dp307
g8
F0.75
sg9
I300
sg10
F0.0
sg11
I1
sssg119
(dp308
g5
(dp309
g8
F0.5
sg9
I300
sg10
F0.0
sg11
I2
sssg122
(dp310
g5
(dp311
g8
F0.5
sg9
I300
sg10
F0.0
sg11
I1
sssg125
(dp312
g5
(dp313
g8
F0.25
sg9
I300
sg10
F0.0
sg11
I2
sssg84
(dp314
g5
(dp315
g8
F0.25
sg9
I300
sg10
F0.0
sg11
I1
sssg87
(dp316
g5
(dp317
I1
(dp318
g8
F0.25
sg9
I300
sg10
F0.0
sg11
I1
ssI2
(dp319
g8
F0.5
sg9
I300
sg10
F0.0
sg11
I1
ssI3
(dp320
g8
F0.5
sg9
I300
sg10
F0.0
sg11
I1
ssI4
(dp321
g8
F0.5
sg9
I300
sg10
F0.0
sg11
I1
ssI5
(dp322
g8
F0.5
sg9
I300
sg10
F0.0
sg11
I1
ssI6
(dp323
g8
F0.25
sg9
I300
sg10
F0.0
sg11
I1
ssI7
(dp324
g8
F0.1
sg9
I300
sg10
F0.0
sg11
I1
ssI8
(dp325
g8
F0.25
sg9
I300
sg10
F0.0
sg11
I1
ssI9
(dp326
g8
F0.25
sg9
I300
sg10
F0.0
sg11
I1
ssI10
(dp327
g8
F0.1
sg9
I300
sg10
F0.0
sg11
I1
ssI11
(dp328
g8
F0.75
sg9
I300
sg10
F0.0
sg11
I1
ssI12
(dp329
g8
F0.75
sg9
I300
sg10
F0.0
sg11
I1
ssI13
(dp330
g8
F0.1
sg9
I300
sg10
F0.0
sg11
I1
ssI14
(dp331
g8
F0.75
sg9
I300
sg10
F0.0
sg11
I1
ssI15
(dp332
g8
F0.5
sg9
I300
sg10
F0.0
sg11
I1
ssI16
(dp333
g8
F0.75
sg9
I300
sg10
F0.0
sg11
I1
ssI17
(dp334
g8
F0.25
sg9
I300
sg10
F0.0
sg11
I1
ssI18
(dp335
g8
F0.5
sg9
I300
sg10
F0.0
sg11
I1
ssI19
(dp336
g8
F0.5
sg9
I300
sg10
F0.0
sg11
I1
ssI20
(dp337
g8
F0.5
sg9
I300
sg10
F0.0
sg11
I1
sssssS'bpic2015_3'
p338
(dp339
g3
(dp340
g5
(dp341
I1
(dp342
g8
F0.25
sg9
I300
sg10
F0.0
sg11
I1
ssI2
(dp343
g8
F0.1
sg9
I300
sg10
F0.0
sg11
I1
ssI3
(dp344
g8
F0.25
sg9
I300
sg10
F0.0
sg11
I1
ssI4
(dp345
g8
F0.5
sg9
I300
sg10
F0.0
sg11
I1
ssI5
(dp346
g8
F0.25
sg9
I300
sg10
F0.0
sg11
I1
ssI6
(dp347
g8
F0.5
sg9
I300
sg10
F0.0
sg11
I1
ssI7
(dp348
g8
F0.5
sg9
I300
sg10
F0.0
sg11
I1
ssI8
(dp349
g8
F0.5
sg9
I300
sg10
F0.0
sg11
I1
ssI9
(dp350
g8
F0.25
sg9
I300
sg10
F0.0
sg11
I1
ssI10
(dp351
g8
F0.1
sg9
I300
sg10
F0.0
sg11
I1
ssI11
(dp352
g8
F0.25
sg9
I300
sg10
F0.0
sg11
I1
ssI12
(dp353
g8
F0.25
sg9
I300
sg10
F0.0
sg11
I1
ssI13
(dp354
g8
F0.25
sg9
I300
sg10
F0.0
sg11
I1
ssI14
(dp355
g8
F0.25
sg9
I300
sg10
F0.0
sg11
I1
ssI15
(dp356
g8
g14
sg9
I300
sg10
F0.0
sg11
I1
ssI16
(dp357
g8
g14
sg9
I300
sg10
F0.0
sg11
I1
ssI17
(dp358
g8
F0.05
sg9
I300
sg10
F0.0
sg11
I1
ssI18
(dp359
g8
g14
sg9
I300
sg10
F0.0
sg11
I1
ssI19
(dp360
g8
F0.1
sg9
I300
sg10
F0.0
sg11
I1
ssI20
(dp361
g8
F0.1
sg9
I300
sg10
F0.0
sg11
I1
ssssg112
(dp362
g5
(dp363
g8
F0.1
sg9
I300
sg10
F0.0
sg11
I2
sssg61
(dp364
g5
(dp365
I1
(dp366
g8
F0.05
sg9
I300
sg10
F0.0
sg11
I1
ssI2
(dp367
g8
g14
sg9
I300
sg10
F0.0
sg11
I1
ssI3
(dp368
g8
F0.25
sg9
I300
sg10
F0.0
sg11
I1
ssI4
(dp369
g8
F0.25
sg9
I300
sg10
F0.0
sg11
I1
ssI5
(dp370
g8
F0.25
sg9
I300
sg10
F0.0
sg11
I1
ssI6
(dp371
g8
F0.5
sg9
I300
sg10
F0.0
sg11
I1
ssI7
(dp372
g8
F0.25
sg9
I300
sg10
F0.0
sg11
I1
ssI8
(dp373
g8
F0.25
sg9
I300
sg10
F0.0
sg11
I1
ssI9
(dp374
g8
F0.25
sg9
I300
sg10
F0.0
sg11
I1
ssI10
(dp375
g8
F0.25
sg9
I300
sg10
F0.0
sg11
I1
ssI11
(dp376
g8
F0.25
sg9
I300
sg10
F0.0
sg11
I1
ssI12
(dp377
g8
F0.1
sg9
I300
sg10
F0.0
sg11
I1
ssI13
(dp378
g8
F0.05
sg9
I300
sg10
F0.0
sg11
I1
ssI14
(dp379
g8
F0.1
sg9
I300
sg10
F0.0
sg11
I1
ssI15
(dp380
g8
F0.05
sg9
I300
sg10
F0.0
sg11
I1
ssI16
(dp381
g8
F0.1
sg9
I300
sg10
F0.0
sg11
I1
ssI17
(dp382
g8
g14
sg9
I300
sg10
F0.0
sg11
I1
ssI18
(dp383
g8
F0.05
sg9
I300
sg10
F0.0
sg11
I1
ssI19
(dp384
g8
g14
sg9
I300
sg10
F0.0
sg11
I1
ssI20
(dp385
g8
g14
sg9
I300
sg10
F0.0
sg11
I1
ssssg32
(dp386
g5
(dp387
g8
F0.1
sg9
I300
sg10
F0.0
sg11
I1
sssg35
(dp388
g5
(dp389
I1
(dp390
g8
F0.1
sg9
I300
sg10
F0.0
sg11
I1
ssI2
(dp391
g8
F0.25
sg9
I300
sg10
F0.0
sg11
I1
ssI3
(dp392
g8
F0.5
sg9
I300
sg10
F0.0
sg11
I1
ssI4
(dp393
g8
F0.25
sg9
I300
sg10
F0.0
sg11
I1
ssI5
(dp394
g8
F0.25
sg9
I300
sg10
F0.0
sg11
I1
ssI6
(dp395
g8
F0.5
sg9
I300
sg10
F0.0
sg11
I1
ssI7
(dp396
g8
F0.75
sg9
I300
sg10
F0.0
sg11
I1
ssI8
(dp397
g8
F0.5
sg9
I300
sg10
F0.0
sg11
I1
ssI9
(dp398
g8
g14
sg9
I300
sg10
F0.0
sg11
I1
ssI10
(dp399
g8
F0.25
sg9
I300
sg10
F0.0
sg11
I1
ssI11
(dp400
g8
F0.1
sg9
I300
sg10
F0.0
sg11
I1
ssI12
(dp401
g8
F0.1
sg9
I300
sg10
F0.0
sg11
I1
ssI13
(dp402
g8
F0.1
sg9
I300
sg10
F0.0
sg11
I1
ssI14
(dp403
g8
F0.1
sg9
I300
sg10
F0.0
sg11
I1
ssI15
(dp404
g8
F0.05
sg9
I300
sg10
F0.0
sg11
I1
ssI16
(dp405
g8
F0.1
sg9
I300
sg10
F0.0
sg11
I1
ssI17
(dp406
g8
F0.1
sg9
I300
sg10
F0.0
sg11
I1
ssI18
(dp407
g8
F0.1
sg9
I300
sg10
F0.0
sg11
I1
ssI19
(dp408
g8
F0.05
sg9
I300
sg10
F0.0
sg11
I1
ssI20
(dp409
g8
F0.1
sg9
I300
sg10
F0.0
sg11
I1
ssssg58
(dp410
g5
(dp411
g8
F0.1
sg9
I300
sg10
F0.0
sg11
I1
sssg119
(dp412
g5
(dp413
g8
F0.05
sg9
I300
sg10
F0.0
sg11
I2
sssg122
(dp414
g5
(dp415
g8
F0.05
sg9
I300
sg10
F0.0
sg11
I1
sssg125
(dp416
g5
(dp417
g8
F0.05
sg9
I300
sg10
F0.0
sg11
I5
sssg84
(dp418
g5
(dp419
g8
g14
sg9
I300
sg10
F0.0
sg11
I1
sssg87
(dp420
g5
(dp421
I1
(dp422
g8
F0.05
sg9
I300
sg10
F0.0
sg11
I1
ssI2
(dp423
g8
g14
sg9
I300
sg10
F0.0
sg11
I1
ssI3
(dp424
g8
F0.25
sg9
I300
sg10
F0.0
sg11
I1
ssI4
(dp425
g8
F0.1
sg9
I300
sg10
F0.0
sg11
I1
ssI5
(dp426
g8
F0.25
sg9
I300
sg10
F0.0
sg11
I1
ssI6
(dp427
g8
F0.25
sg9
I300
sg10
F0.0
sg11
I1
ssI7
(dp428
g8
g14
sg9
I300
sg10
F0.0
sg11
I1
ssI8
(dp429
g8
g14
sg9
I300
sg10
F0.0
sg11
I1
ssI9
(dp430
g8
F0.05
sg9
I300
sg10
F0.0
sg11
I1
ssI10
(dp431
g8
g14
sg9
I300
sg10
F0.0
sg11
I1
ssI11
(dp432
g8
g14
sg9
I300
sg10
F0.0
sg11
I1
ssI12
(dp433
g8
g14
sg9
I300
sg10
F0.0
sg11
I1
ssI13
(dp434
g8
g14
sg9
I300
sg10
F0.0
sg11
I1
ssI14
(dp435
g8
F0.1
sg9
I300
sg10
F0.0
sg11
I1
ssI15
(dp436
g8
g14
sg9
I300
sg10
F0.0
sg11
I1
ssI16
(dp437
g8
F0.1
sg9
I300
sg10
F0.0
sg11
I1
ssI17
(dp438
g8
F0.25
sg9
I300
sg10
F0.0
sg11
I1
ssI18
(dp439
g8
F0.25
sg9
I300
sg10
F0.0
sg11
I1
ssI19
(dp440
g8
F0.1
sg9
I300
sg10
F0.0
sg11
I1
ssI20
(dp441
g8
g14
sg9
I300
sg10
F0.0
sg11
I1
sssssS'bpic2015_2'
p442
(dp443
g3
(dp444
g5
(dp445
I1
(dp446
g8
F0.1
sg9
I300
sg10
F0.0
sg11
I1
ssI2
(dp447
g8
F0.5
sg9
I300
sg10
F0.0
sg11
I1
ssI3
(dp448
g8
F0.5
sg9
I300
sg10
F0.0
sg11
I1
ssI4
(dp449
g8
F0.5
sg9
I300
sg10
F0.0
sg11
I1
ssI5
(dp450
g8
F0.25
sg9
I300
sg10
F0.0
sg11
I1
ssI6
(dp451
g8
F0.25
sg9
I300
sg10
F0.0
sg11
I1
ssI7
(dp452
g8
F0.5
sg9
I300
sg10
F0.0
sg11
I1
ssI8
(dp453
g8
F0.25
sg9
I300
sg10
F0.0
sg11
I1
ssI9
(dp454
g8
F0.1
sg9
I300
sg10
F0.0
sg11
I1
ssI10
(dp455
g8
F0.25
sg9
I300
sg10
F0.0
sg11
I1
ssI11
(dp456
g8
F0.25
sg9
I300
sg10
F0.0
sg11
I1
ssI12
(dp457
g8
g14
sg9
I300
sg10
F0.0
sg11
I1
ssI13
(dp458
g8
F0.05
sg9
I300
sg10
F0.0
sg11
I1
ssI14
(dp459
g8
F0.05
sg9
I300
sg10
F0.0
sg11
I1
ssI15
(dp460
g8
F0.1
sg9
I300
sg10
F0.0
sg11
I1
ssI16
(dp461
g8
F0.05
sg9
I300
sg10
F0.0
sg11
I1
ssI17
(dp462
g8
g14
sg9
I300
sg10
F0.0
sg11
I1
ssI18
(dp463
g8
F0.1
sg9
I300
sg10
F0.0
sg11
I1
ssI19
(dp464
g8
F0.1
sg9
I300
sg10
F0.0
sg11
I1
ssI20
(dp465
g8
F0.1
sg9
I300
sg10
F0.0
sg11
I1
ssssg112
(dp466
g5
(dp467
g8
g14
sg9
I300
sg10
F0.0
sg11
I2
sssg61
(dp468
g5
(dp469
I1
(dp470
g8
F0.25
sg9
I300
sg10
F0.0
sg11
I1
ssI2
(dp471
g8
g14
sg9
I300
sg10
F0.0
sg11
I1
ssI3
(dp472
g8
F0.25
sg9
I300
sg10
F0.0
sg11
I1
ssI4
(dp473
g8
F0.25
sg9
I300
sg10
F0.0
sg11
I1
ssI5
(dp474
g8
F0.25
sg9
I300
sg10
F0.0
sg11
I1
ssI6
(dp475
g8
F0.25
sg9
I300
sg10
F0.0
sg11
I1
ssI7
(dp476
g8
F0.25
sg9
I300
sg10
F0.0
sg11
I1
ssI8
(dp477
g8
F0.25
sg9
I300
sg10
F0.0
sg11
I1
ssI9
(dp478
g8
F0.25
sg9
I300
sg10
F0.0
sg11
I1
ssI10
(dp479
g8
F0.25
sg9
I300
sg10
F0.0
sg11
I1
ssI11
(dp480
g8
F0.25
sg9
I300
sg10
F0.0
sg11
I1
ssI12
(dp481
g8
F0.05
sg9
I300
sg10
F0.0
sg11
I1
ssI13
(dp482
g8
F0.1
sg9
I300
sg10
F0.0
sg11
I1
ssI14
(dp483
g8
F0.5
sg9
I300
sg10
F0.0
sg11
I1
ssI15
(dp484
g8
F0.05
sg9
I300
sg10
F0.0
sg11
I1
ssI16
(dp485
g8
F0.25
sg9
I300
sg10
F0.0
sg11
I1
ssI17
(dp486
g8
F0.25
sg9
I300
sg10
F0.0
sg11
I1
ssI18
(dp487
g8
F0.05
sg9
I300
sg10
F0.0
sg11
I1
ssI19
(dp488
g8
F0.05
sg9
I300
sg10
F0.0
sg11
I1
ssI20
(dp489
g8
F0.05
sg9
I300
sg10
F0.0
sg11
I1
ssssg32
(dp490
g5
(dp491
g8
F0.1
sg9
I300
sg10
F0.0
sg11
I1
sssg35
(dp492
g5
(dp493
I1
(dp494
g8
g14
sg9
I300
sg10
F0.0
sg11
I1
ssI2
(dp495
g8
F0.5
sg9
I300
sg10
F0.0
sg11
I1
ssI3
(dp496
g8
F0.25
sg9
I300
sg10
F0.0
sg11
I1
ssI4
(dp497
g8
F0.25
sg9
I300
sg10
F0.0
sg11
I1
ssI5
(dp498
g8
F0.25
sg9
I300
sg10
F0.0
sg11
I1
ssI6
(dp499
g8
F0.5
sg9
I300
sg10
F0.0
sg11
I1
ssI7
(dp500
g8
F0.5
sg9
I300
sg10
F0.0
sg11
I1
ssI8
(dp501
g8
F0.1
sg9
I300
sg10
F0.0
sg11
I1
ssI9
(dp502
g8
F0.5
sg9
I300
sg10
F0.0
sg11
I1
ssI10
(dp503
g8
F0.25
sg9
I300
sg10
F0.0
sg11
I1
ssI11
(dp504
g8
F0.25
sg9
I300
sg10
F0.0
sg11
I1
ssI12
(dp505
g8
F0.05
sg9
I300
sg10
F0.0
sg11
I1
ssI13
(dp506
g8
F0.05
sg9
I300
sg10
F0.0
sg11
I1
ssI14
(dp507
g8
g14
sg9
I300
sg10
F0.0
sg11
I1
ssI15
(dp508
g8
F0.1
sg9
I300
sg10
F0.0
sg11
I1
ssI16
(dp509
g8
g14
sg9
I300
sg10
F0.0
sg11
I1
ssI17
(dp510
g8
F0.05
sg9
I300
sg10
F0.0
sg11
I1
ssI18
(dp511
g8
F0.05
sg9
I300
sg10
F0.0
sg11
I1
ssI19
(dp512
g8
g14
sg9
I300
sg10
F0.0
sg11
I1
ssI20
(dp513
g8
g14
sg9
I300
sg10
F0.0
sg11
I1
ssssg58
(dp514
g5
(dp515
g8
F0.1
sg9
I300
sg10
F0.0
sg11
I1
sssg119
(dp516
g5
(dp517
g8
F0.1
sg9
I300
sg10
F0.0
sg11
I2
sssg122
(dp518
g5
(dp519
g8
F0.05
sg9
I300
sg10
F0.0
sg11
I1
sssg125
(dp520
g5
(dp521
g8
F0.05
sg9
I300
sg10
F0.0
sg11
I2
sssg84
(dp522
g5
(dp523
g8
F0.05
sg9
I300
sg10
F0.0
sg11
I1
sssg87
(dp524
g5
(dp525
I1
(dp526
g8
F0.25
sg9
I300
sg10
F0.0
sg11
I1
ssI2
(dp527
g8
F0.05
sg9
I300
sg10
F0.0
sg11
I1
ssI3
(dp528
g8
g14
sg9
I300
sg10
F0.0
sg11
I1
ssI4
(dp529
g8
g14
sg9
I300
sg10
F0.0
sg11
I1
ssI5
(dp530
g8
F0.25
sg9
I300
sg10
F0.0
sg11
I1
ssI6
(dp531
g8
F0.1
sg9
I300
sg10
F0.0
sg11
I1
ssI7
(dp532
g8
g14
sg9
I300
sg10
F0.0
sg11
I1
ssI8
(dp533
g8
F0.1
sg9
I300
sg10
F0.0
sg11
I1
ssI9
(dp534
g8
F0.25
sg9
I300
sg10
F0.0
sg11
I1
ssI10
(dp535
g8
F0.25
sg9
I300
sg10
F0.0
sg11
I1
ssI11
(dp536
g8
g14
sg9
I300
sg10
F0.0
sg11
I1
ssI12
(dp537
g8
F0.25
sg9
I300
sg10
F0.0
sg11
I1
ssI13
(dp538
g8
F0.1
sg9
I300
sg10
F0.0
sg11
I1
ssI14
(dp539
g8
F0.25
sg9
I300
sg10
F0.0
sg11
I1
ssI15
(dp540
g8
F0.25
sg9
I300
sg10
F0.0
sg11
I1
ssI16
(dp541
g8
F0.25
sg9
I300
sg10
F0.0
sg11
I1
ssI17
(dp542
g8
F0.25
sg9
I300
sg10
F0.0
sg11
I1
ssI18
(dp543
g8
F0.1
sg9
I300
sg10
F0.0
sg11
I1
ssI19
(dp544
g8
F0.05
sg9
I300
sg10
F0.0
sg11
I1
ssI20
(dp545
g8
F0.05
sg9
I300
sg10
F0.0
sg11
I1
sssssS'bpic2015_5'
p546
(dp547
g3
(dp548
g5
(dp549
I1
(dp550
g8
F0.25
sg9
I300
sg10
F0.0
sg11
I1
ssI2
(dp551
g8
F0.5
sg9
I300
sg10
F0.0
sg11
I1
ssI3
(dp552
g8
F0.25
sg9
I300
sg10
F0.0
sg11
I1
ssI4
(dp553
g8
F0.25
sg9
I300
sg10
F0.0
sg11
I1
ssI5
(dp554
g8
F0.25
sg9
I300
sg10
F0.0
sg11
I1
ssI6
(dp555
g8
F0.25
sg9
I300
sg10
F0.0
sg11
I1
ssI7
(dp556
g8
F0.75
sg9
I300
sg10
F0.0
sg11
I1
ssI8
(dp557
g8
F0.25
sg9
I300
sg10
F0.0
sg11
I1
ssI9
(dp558
g8
F0.5
sg9
I300
sg10
F0.0
sg11
I1
ssI10
(dp559
g8
F0.75
sg9
I300
sg10
F0.0
sg11
I1
ssI11
(dp560
g8
F0.25
sg9
I300
sg10
F0.0
sg11
I1
ssI12
(dp561
g8
F0.25
sg9
I300
sg10
F0.0
sg11
I1
ssI13
(dp562
g8
F0.5
sg9
I300
sg10
F0.0
sg11
I1
ssI14
(dp563
g8
F0.5
sg9
I300
sg10
F0.0
sg11
I1
ssI15
(dp564
g8
F0.25
sg9
I300
sg10
F0.0
sg11
I1
ssI16
(dp565
g8
F0.1
sg9
I300
sg10
F0.0
sg11
I1
ssI17
(dp566
g8
g14
sg9
I300
sg10
F0.0
sg11
I1
ssI18
(dp567
g8
g14
sg9
I300
sg10
F0.0
sg11
I1
ssI19
(dp568
g8
F0.05
sg9
I300
sg10
F0.0
sg11
I1
ssI20
(dp569
g8
F0.05
sg9
I300
sg10
F0.0
sg11
I1
ssssg112
(dp570
g5
(dp571
g8
F0.1
sg9
I300
sg10
F0.0
sg11
I2
sssg61
(dp572
g5
(dp573
I1
(dp574
g8
F0.1
sg9
I300
sg10
F0.0
sg11
I1
ssI2
(dp575
g8
F0.25
sg9
I300
sg10
F0.0
sg11
I1
ssI3
(dp576
g8
F0.1
sg9
I300
sg10
F0.0
sg11
I1
ssI4
(dp577
g8
F0.1
sg9
I300
sg10
F0.0
sg11
I1
ssI5
(dp578
g8
F0.25
sg9
I300
sg10
F0.0
sg11
I1
ssI6
(dp579
g8
F0.25
sg9
I300
sg10
F0.0
sg11
I1
ssI7
(dp580
g8
F0.5
sg9
I300
sg10
F0.0
sg11
I1
ssI8
(dp581
g8
F0.25
sg9
I300
sg10
F0.0
sg11
I1
ssI9
(dp582
g8
F0.25
sg9
I300
sg10
F0.0
sg11
I1
ssI10
(dp583
g8
F0.25
sg9
I300
sg10
F0.0
sg11
I1
ssI11
(dp584
g8
F0.25
sg9
I300
sg10
F0.0
sg11
I1
ssI12
(dp585
g8
F0.1
sg9
I300
sg10
F0.0
sg11
I1
ssI13
(dp586
g8
F0.25
sg9
I300
sg10
F0.0
sg11
I1
ssI14
(dp587
g8
F0.05
sg9
I300
sg10
F0.0
sg11
I1
ssI15
(dp588
g8
g14
sg9
I300
sg10
F0.0
sg11
I1
ssI16
(dp589
g8
F0.1
sg9
I300
sg10
F0.0
sg11
I1
ssI17
(dp590
g8
F0.05
sg9
I300
sg10
F0.0
sg11
I1
ssI18
(dp591
g8
F0.1
sg9
I300
sg10
F0.0
sg11
I1
ssI19
(dp592
g8
F0.05
sg9
I300
sg10
F0.0
sg11
I1
ssI20
(dp593
g8
F0.05
sg9
I300
sg10
F0.0
sg11
I1
ssssg32
(dp594
g5
(dp595
g8
F0.1
sg9
I300
sg10
F0.0
sg11
I1
sssg35
(dp596
g5
(dp597
I1
(dp598
g8
F0.25
sg9
I300
sg10
F0.0
sg11
I1
ssI2
(dp599
g8
F0.25
sg9
I300
sg10
F0.0
sg11
I1
ssI3
(dp600
g8
F0.25
sg9
I300
sg10
F0.0
sg11
I1
ssI4
(dp601
g8
F0.25
sg9
I300
sg10
F0.0
sg11
I1
ssI5
(dp602
g8
F0.25
sg9
I300
sg10
F0.0
sg11
I1
ssI6
(dp603
g8
F0.25
sg9
I300
sg10
F0.0
sg11
I1
ssI7
(dp604
g8
F0.5
sg9
I300
sg10
F0.0
sg11
I1
ssI8
(dp605
g8
F0.25
sg9
I300
sg10
F0.0
sg11
I1
ssI9
(dp606
g8
F0.5
sg9
I300
sg10
F0.0
sg11
I1
ssI10
(dp607
g8
F0.25
sg9
I300
sg10
F0.0
sg11
I1
ssI11
(dp608
g8
F0.25
sg9
I300
sg10
F0.0
sg11
I1
ssI12
(dp609
g8
F0.25
sg9
I300
sg10
F0.0
sg11
I1
ssI13
(dp610
g8
F0.75
sg9
I300
sg10
F0.0
sg11
I1
ssI14
(dp611
g8
F0.1
sg9
I300
sg10
F0.0
sg11
I1
ssI15
(dp612
g8
F0.1
sg9
I300
sg10
F0.0
sg11
I1
ssI16
(dp613
g8
F0.1
sg9
I300
sg10
F0.0
sg11
I1
ssI17
(dp614
g8
g14
sg9
I300
sg10
F0.0
sg11
I1
ssI18
(dp615
g8
F0.05
sg9
I300
sg10
F0.0
sg11
I1
ssI19
(dp616
g8
F0.05
sg9
I300
sg10
F0.0
sg11
I1
ssI20
(dp617
g8
g14
sg9
I300
sg10
F0.0
sg11
I1
ssssg58
(dp618
g5
(dp619
g8
g14
sg9
I300
sg10
F0.0
sg11
I1
sssg119
(dp620
g5
(dp621
g8
F0.1
sg9
I300
sg10
F0.0
sg11
I2
sssg122
(dp622
g5
(dp623
g8
g14
sg9
I300
sg10
F0.0
sg11
I1
sssg125
(dp624
g5
(dp625
g8
F0.05
sg9
I300
sg10
F0.0
sg11
I2
sssg84
(dp626
g5
(dp627
g8
F0.05
sg9
I300
sg10
F0.0
sg11
I1
sssg87
(dp628
g5
(dp629
I1
(dp630
g8
F0.1
sg9
I300
sg10
F0.0
sg11
I1
ssI2
(dp631
g8
g14
sg9
I300
sg10
F0.0
sg11
I1
ssI3
(dp632
g8
F0.1
sg9
I300
sg10
F0.0
sg11
I1
ssI4
(dp633
g8
F0.25
sg9
I300
sg10
F0.0
sg11
I1
ssI5
(dp634
g8
g14
sg9
I300
sg10
F0.0
sg11
I1
ssI6
(dp635
g8
F0.25
sg9
I300
sg10
F0.0
sg11
I1
ssI7
(dp636
g8
F0.25
sg9
I300
sg10
F0.0
sg11
I1
ssI8
(dp637
g8
F0.25
sg9
I300
sg10
F0.0
sg11
I1
ssI9
(dp638
g8
g14
sg9
I300
sg10
F0.0
sg11
I1
ssI10
(dp639
g8
F0.25
sg9
I300
sg10
F0.0
sg11
I1
ssI11
(dp640
g8
F0.25
sg9
I300
sg10
F0.0
sg11
I1
ssI12
(dp641
g8
F0.25
sg9
I300
sg10
F0.0
sg11
I1
ssI13
(dp642
g8
g14
sg9
I300
sg10
F0.0
sg11
I1
ssI14
(dp643
g8
F0.1
sg9
I300
sg10
F0.0
sg11
I1
ssI15
(dp644
g8
F0.1
sg9
I300
sg10
F0.0
sg11
I1
ssI16
(dp645
g8
F0.75
sg9
I300
sg10
F0.0
sg11
I1
ssI17
(dp646
g8
g14
sg9
I300
sg10
F0.0
sg11
I1
ssI18
(dp647
g8
g14
sg9
I300
sg10
F0.0
sg11
I1
ssI19
(dp648
g8
F0.5
sg9
I300
sg10
F0.0
sg11
I1
ssI20
(dp649
g8
F0.25
sg9
I300
sg10
F0.0
sg11
I1
sssssS'bpic2015_4'
p650
(dp651
g132
(dp652
g5
(dp653
g8
F0.75
sg9
I300
sg10
F0.0
sg11
I1
sssg112
(dp654
g5
(dp655
g8
F0.25
sg9
I300
sg10
F0.0
sg11
I10
sssg3
(dp656
g5
(dp657
I1
(dp658
g8
F0.1
sg9
I300
sg10
F0.0
sg11
I1
ssI2
(dp659
g8
F0.25
sg9
I300
sg10
F0.0
sg11
I1
ssI3
(dp660
g8
g14
sg9
I300
sg10
F0.0
sg11
I1
ssI4
(dp661
g8
g14
sg9
I300
sg10
F0.0
sg11
I1
ssI5
(dp662
g8
F0.25
sg9
I300
sg10
F0.0
sg11
I1
ssI6
(dp663
g8
F0.25
sg9
I300
sg10
F0.0
sg11
I1
ssI7
(dp664
g8
g14
sg9
I300
sg10
F0.0
sg11
I1
ssI8
(dp665
g8
F0.25
sg9
I300
sg10
F0.0
sg11
I1
ssI9
(dp666
g8
F0.25
sg9
I300
sg10
F0.0
sg11
I1
ssI10
(dp667
g8
F0.75
sg9
I300
sg10
F0.0
sg11
I1
ssI11
(dp668
g8
F0.5
sg9
I300
sg10
F0.0
sg11
I1
ssI12
(dp669
g8
F0.75
sg9
I300
sg10
F0.0
sg11
I1
ssI13
(dp670
g8
g14
sg9
I300
sg10
F0.0
sg11
I1
ssI14
(dp671
g8
F0.5
sg9
I300
sg10
F0.0
sg11
I1
ssI15
(dp672
g8
F0.5
sg9
I300
sg10
F0.0
sg11
I1
ssI16
(dp673
g8
F0.75
sg9
I300
sg10
F0.0
sg11
I1
ssI17
(dp674
g8
F0.75
sg9
I300
sg10
F0.0
sg11
I1
ssI18
(dp675
g8
F0.5
sg9
I300
sg10
F0.0
sg11
I1
ssI19
(dp676
g8
F0.5
sg9
I300
sg10
F0.0
sg11
I1
ssI20
(dp677
g8
F0.25
sg9
I300
sg10
F0.0
sg11
I1
ssssg61
(dp678
g5
(dp679
I1
(dp680
g8
g14
sg9
I300
sg10
F0.0
sg11
I1
ssI2
(dp681
g8
F0.1
sg9
I300
sg10
F0.0
sg11
I1
ssI3
(dp682
g8
g14
sg9
I300
sg10
F0.0
sg11
I1
ssI4
(dp683
g8
F0.05
sg9
I300
sg10
F0.0
sg11
I1
ssI5
(dp684
g8
F0.1
sg9
I300
sg10
F0.0
sg11
I1
ssI6
(dp685
g8
g14
sg9
I300
sg10
F0.0
sg11
I1
ssI7
(dp686
g8
F0.25
sg9
I300
sg10
F0.0
sg11
I1
ssI8
(dp687
g8
F0.25
sg9
I300
sg10
F0.0
sg11
I1
ssI9
(dp688
g8
F0.25
sg9
I300
sg10
F0.0
sg11
I1
ssI10
(dp689
g8
F0.1
sg9
I300
sg10
F0.0
sg11
I1
ssI11
(dp690
g8
F0.25
sg9
I300
sg10
F0.0
sg11
I1
ssI12
(dp691
g8
F0.25
sg9
I300
sg10
F0.0
sg11
I1
ssI13
(dp692
g8
F0.75
sg9
I300
sg10
F0.0
sg11
I1
ssI14
(dp693
g8
F0.75
sg9
I300
sg10
F0.0
sg11
I1
ssI15
(dp694
g8
F0.5
sg9
I300
sg10
F0.0
sg11
I1
ssI16
(dp695
g8
F0.75
sg9
I300
sg10
F0.0
sg11
I1
ssI17
(dp696
g8
F0.75
sg9
I300
sg10
F0.0
sg11
I1
ssI18
(dp697
g8
F0.75
sg9
I300
sg10
F0.0
sg11
I1
ssI19
(dp698
g8
F0.75
sg9
I300
sg10
F0.0
sg11
I1
ssI20
(dp699
g8
F0.5
sg9
I300
sg10
F0.0
sg11
I1
ssssg32
(dp700
g5
(dp701
g8
F0.1
sg9
I300
sg10
F0.0
sg11
I1
sssg35
(dp702
g5
(dp703
I1
(dp704
g8
g14
sg9
I300
sg10
F0.0
sg11
I1
ssI2
(dp705
g8
F0.1
sg9
I300
sg10
F0.0
sg11
I1
ssI3
(dp706
g8
F0.25
sg9
I300
sg10
F0.0
sg11
I1
ssI4
(dp707
g8
F0.05
sg9
I300
sg10
F0.0
sg11
I1
ssI5
(dp708
g8
F0.25
sg9
I300
sg10
F0.0
sg11
I1
ssI6
(dp709
g8
g14
sg9
I300
sg10
F0.0
sg11
I1
ssI7
(dp710
g8
F0.5
sg9
I300
sg10
F0.0
sg11
I1
ssI8
(dp711
g8
g14
sg9
I300
sg10
F0.0
sg11
I1
ssI9
(dp712
g8
F0.25
sg9
I300
sg10
F0.0
sg11
I1
ssI10
(dp713
g8
F0.25
sg9
I300
sg10
F0.0
sg11
I1
ssI11
(dp714
g8
F0.25
sg9
I300
sg10
F0.0
sg11
I1
ssI12
(dp715
g8
F0.75
sg9
I300
sg10
F0.0
sg11
I1
ssI13
(dp716
g8
F0.25
sg9
I300
sg10
F0.0
sg11
I1
ssI14
(dp717
g8
F0.5
sg9
I300
sg10
F0.0
sg11
I1
ssI15
(dp718
g8
F0.5
sg9
I300
sg10
F0.0
sg11
I1
ssI16
(dp719
g8
F0.5
sg9
I300
sg10
F0.0
sg11
I1
ssI17
(dp720
g8
F0.75
sg9
I300
sg10
F0.0
sg11
I1
ssI18
(dp721
g8
F0.25
sg9
I300
sg10
F0.0
sg11
I1
ssI19
(dp722
g8
F0.75
sg9
I300
sg10
F0.0
sg11
I1
ssI20
(dp723
g8
F0.25
sg9
I300
sg10
F0.0
sg11
I1
ssssg58
(dp724
g5
(dp725
g8
F0.05
sg9
I300
sg10
F0.0
sg11
I1
sssg119
(dp726
g5
(dp727
g8
F0.25
sg9
I300
sg10
F0.0
sg11
I10
sssg122
(dp728
g5
(dp729
g8
F0.05
sg9
I300
sg10
F0.0
sg11
I1
sssg125
(dp730
g5
(dp731
g8
F0.25
sg9
I300
sg10
F0.0
sg11
I20
sssg84
(dp732
g5
(dp733
g8
F0.05
sg9
I300
sg10
F0.0
sg11
I1
sssg87
(dp734
g5
(dp735
I1
(dp736
g8
g14
sg9
I300
sg10
F0.0
sg11
I1
ssI2
(dp737
g8
F0.25
sg9
I300
sg10
F0.0
sg11
I1
ssI3
(dp738
g8
F0.1
sg9
I300
sg10
F0.0
sg11
I1
ssI4
(dp739
g8
F0.1
sg9
I300
sg10
F0.0
sg11
I1
ssI5
(dp740
g8
F0.25
sg9
I300
sg10
F0.0
sg11
I1
ssI6
(dp741
g8
F0.25
sg9
I300
sg10
F0.0
sg11
I1
ssI7
(dp742
g8
F0.25
sg9
I300
sg10
F0.0
sg11
I1
ssI8
(dp743
g8
F0.25
sg9
I300
sg10
F0.0
sg11
I1
ssI9
(dp744
g8
F0.25
sg9
I300
sg10
F0.0
sg11
I1
ssI10
(dp745
g8
g14
sg9
I300
sg10
F0.0
sg11
I1
ssI11
(dp746
g8
F0.5
sg9
I300
sg10
F0.0
sg11
I1
ssI12
(dp747
g8
F0.75
sg9
I300
sg10
F0.0
sg11
I1
ssI13
(dp748
g8
F0.25
sg9
I300
sg10
F0.0
sg11
I1
ssI14
(dp749
g8
F0.25
sg9
I300
sg10
F0.0
sg11
I1
ssI15
(dp750
g8
F0.5
sg9
I300
sg10
F0.0
sg11
I1
ssI16
(dp751
g8
F0.75
sg9
I300
sg10
F0.0
sg11
I1
ssI17
(dp752
g8
F0.75
sg9
I300
sg10
F0.0
sg11
I1
ssI18
(dp753
g8
F0.25
sg9
I300
sg10
F0.0
sg11
I1
ssI19
(dp754
g8
F0.75
sg9
I300
sg10
F0.0
sg11
I1
ssI20
(dp755
g8
F0.5
sg9
I300
sg10
F0.0
sg11
I1
sssssS'traffic_fines'
p756
(dp757
g122
(dp758
g5
(dp759
g8
F0.25
sg9
I300
sg10
F0.0
sg11
I1
ssss.