(dp0
S'bpic2017'
p1
(dp2
S'prefix_agg'
p3
(dp4
S'rf'
p5
(dp6
I1
(dp7
S'max_features'
p8
F0.75
sS'n_estimators'
p9
I300
sS'n_clusters'
p10
I1
ssI2
(dp11
g8
F0.05
sg9
I300
sg10
I1
ssI3
(dp12
g8
S'sqrt'
p13
sg9
I300
sg10
I1
ssI4
(dp14
g8
g13
sg9
I300
sg10
I1
ssI5
(dp15
g8
F0.25
sg9
I300
sg10
I1
ssI6
(dp16
g8
F0.25
sg9
I300
sg10
I1
ssI7
(dp17
g8
F0.25
sg9
I300
sg10
I1
ssI8
(dp18
g8
F0.5
sg9
I300
sg10
I1
ssI9
(dp19
g8
F0.25
sg9
I300
sg10
I1
ssI10
(dp20
g8
F0.75
sg9
I300
sg10
I1
ssI11
(dp21
g8
F0.25
sg9
I300
sg10
I1
ssI12
(dp22
g8
F0.5
sg9
I300
sg10
I1
ssI13
(dp23
g8
F0.75
sg9
I300
sg10
I1
ssI14
(dp24
g8
F0.75
sg9
I300
sg10
I1
ssI15
(dp25
g8
F0.75
sg9
I300
sg10
I1
ssI16
(dp26
g8
F0.75
sg9
I300
sg10
I1
ssI17
(dp27
g8
F0.75
sg9
I300
sg10
I1
ssI18
(dp28
g8
F0.75
sg9
I300
sg10
I1
ssI19
(dp29
g8
F0.75
sg9
I300
sg10
I1
ssI20
(dp30
g8
F0.75
sg9
I300
sg10
I1
ssssS'single_combined'
p31
(dp32
g5
(dp33
g8
F0.1
sg9
I300
sg10
I1
sssS'prefix_combined'
p34
(dp35
g5
(dp36
I1
(dp37
g8
F0.75
sg9
I300
sg10
I1
ssI2
(dp38
g8
g13
sg9
I300
sg10
I1
ssI3
(dp39
g8
F0.1
sg9
I300
sg10
I1
ssI4
(dp40
g8
F0.25
sg9
I300
sg10
I1
ssI5
(dp41
g8
F0.1
sg9
I300
sg10
I1
ssI6
(dp42
g8
F0.1
sg9
I300
sg10
I1
ssI7
(dp43
g8
F0.25
sg9
I300
sg10
I1
ssI8
(dp44
g8
F0.25
sg9
I300
sg10
I1
ssI9
(dp45
g8
F0.25
sg9
I300
sg10
I1
ssI10
(dp46
g8
F0.5
sg9
I300
sg10
I1
ssI11
(dp47
g8
F0.25
sg9
I300
sg10
I1
ssI12
(dp48
g8
F0.75
sg9
I300
sg10
I1
ssI13
(dp49
g8
F0.5
sg9
I300
sg10
I1
ssI14
(dp50
g8
F0.75
sg9
I300
sg10
I1
ssI15
(dp51
g8
F0.75
sg9
I300
sg10
I1
ssI16
(dp52
g8
F0.75
sg9
I300
sg10
I1
ssI17
(dp53
g8
F0.75
sg9
I300
sg10
I1
ssI18
(dp54
g8
F0.75
sg9
I300
sg10
I1
ssI19
(dp55
g8
F0.75
sg9
I300
sg10
I1
ssI20
(dp56
g8
F0.75
sg9
I300
sg10
I1
ssssS'single_agg'
p57
(dp58
g5
(dp59
g8
F0.25
sg9
I300
sg10
I1
sssS'prefix_index'
p60
(dp61
g5
(dp62
I1
(dp63
g8
g13
sg9
I300
sg10
I1
ssI2
(dp64
g8
g13
sg9
I300
sg10
I1
ssI3
(dp65
g8
g13
sg9
I300
sg10
I1
ssI4
(dp66
g8
F0.25
sg9
I300
sg10
I1
ssI5
(dp67
g8
F0.25
sg9
I300
sg10
I1
ssI6
(dp68
g8
F0.1
sg9
I300
sg10
I1
ssI7
(dp69
g8
F0.25
sg9
I300
sg10
I1
ssI8
(dp70
g8
F0.25
sg9
I300
sg10
I1
ssI9
(dp71
g8
F0.25
sg9
I300
sg10
I1
ssI10
(dp72
g8
F0.5
sg9
I300
sg10
I1
ssI11
(dp73
g8
F0.5
sg9
I300
sg10
I1
ssI12
(dp74
g8
F0.25
sg9
I300
sg10
I1
ssI13
(dp75
g8
F0.5
sg9
I300
sg10
I1
ssI14
(dp76
g8
F0.5
sg9
I300
sg10
I1
ssI15
(dp77
g8
F0.5
sg9
I300
sg10
I1
ssI16
(dp78
g8
F0.5
sg9
I300
sg10
I1
ssI17
(dp79
g8
F0.5
sg9
I300
sg10
I1
ssI18
(dp80
g8
F0.25
sg9
I300
sg10
I1
ssI19
(dp81
g8
F0.5
sg9
I300
sg10
I1
ssI20
(dp82
g8
F0.75
sg9
I300
sg10
I1
ssssS'single_laststate'
p83
(dp84
g5
(dp85
g8
g13
sg9
I300
sg10
I1
sssS'prefix_laststate'
p86
(dp87
g5
(dp88
I1
(dp89
g8
g13
sg9
I300
sg10
I1
ssI2
(dp90
g8
F0.1
sg9
I300
sg10
I1
ssI3
(dp91
g8
F0.1
sg9
I300
sg10
I1
ssI4
(dp92
g8
F0.1
sg9
I300
sg10
I1
ssI5
(dp93
g8
g13
sg9
I300
sg10
I1
ssI6
(dp94
g8
F0.25
sg9
I300
sg10
I1
ssI7
(dp95
g8
F0.25
sg9
I300
sg10
I1
ssI8
(dp96
g8
F0.25
sg9
I300
sg10
I1
ssI9
(dp97
g8
F0.25
sg9
I300
sg10
I1
ssI10
(dp98
g8
g13
sg9
I300
sg10
I1
ssI11
(dp99
g8
F0.25
sg9
I300
sg10
I1
ssI12
(dp100
g8
g13
sg9
I300
sg10
I1
ssI13
(dp101
g8
F0.25
sg9
I300
sg10
I1
ssI14
(dp102
g8
F0.25
sg9
I300
sg10
I1
ssI15
(dp103
g8
F0.25
sg9
I300
sg10
I1
ssI16
(dp104
g8
F0.25
sg9
I300
sg10
I1
ssI17
(dp105
g8
F0.25
sg9
I300
sg10
I1
ssI18
(dp106
g8
F0.25
sg9
I300
sg10
I1
ssI19
(dp107
g8
F0.25
sg9
I300
sg10
I1
ssI20
(dp108
g8
F0.25
sg9
I300
sg10
I1
sssssS'bpic2011'
p109
(dp110
S'cluster_agg'
p111
(dp112
g5
(dp113
g8
F0.5
sg9
I300
sg10
I2
sssg31
(dp114
g5
(dp115
g8
F0.25
sg9
I300
sg10
I1
sssg57
(dp116
g5
(dp117
g8
F0.25
sg9
I300
sg10
I1
sssS'cluster_combined'
p118
(dp119
g5
(dp120
g8
F0.5
sg9
I300
sg10
I2
sssS'single_index'
p121
(dp122
g5
(dp123
g8
F0.25
sg9
I300
sg10
I1
sssS'cluster_laststate'
p124
(dp125
g5
(dp126
g8
F0.1
sg9
I300
sg10
I2
sssg83
(dp127
g5
(dp128
g8
F0.1
sg9
I300
sg10
I1
ssssS'sepsis'
p129
(dp130
S'state_agg'
p131
(dp132
g5
(dp133
g8
F0.05
sg9
I300
sg10
I1
sssS'state_laststate'
p134
(dp135
g5
(dp136
g8
F0.1
sg9
I300
sg10
I1
sssg111
(dp137
g5
(dp138
g8
F0.05
sg9
I300
sg10
I20
sssg3
(dp139
g5
(dp140
I1
(dp141
g8
F0.05
sg9
I300
sg10
I1
ssI2
(dp142
g8
F0.05
sg9
I300
sg10
I1
ssI3
(dp143
g8
g13
sg9
I300
sg10
I1
ssI4
(dp144
g8
F0.5
sg9
I300
sg10
I1
ssI5
(dp145
g8
F0.1
sg9
I300
sg10
I1
ssI6
(dp146
g8
g13
sg9
I300
sg10
I1
ssssS'state_combined'
p147
(dp148
g5
(dp149
g8
F0.05
sg9
I300
sg10
I1
sssg86
(dp150
g5
(dp151
I1
(dp152
g8
F0.05
sg9
I300
sg10
I1
ssI2
(dp153
g8
F0.05
sg9
I300
sg10
I1
ssI3
(dp154
g8
F0.05
sg9
I300
sg10
I1
ssI4
(dp155
g8
F0.05
sg9
I300
sg10
I1
ssI5
(dp156
g8
g13
sg9
I300
sg10
I1
ssI6
(dp157
g8
F0.75
sg9
I300
sg10
I1
ssssg31
(dp158
g5
(dp159
g8
g13
sg9
I300
sg10
I1
sssg34
(dp160
g5
(dp161
I1
(dp162
g8
F0.05
sg9
I300
sg10
I1
ssI2
(dp163
g8
F0.05
sg9
I300
sg10
I1
ssI3
(dp164
g8
F0.05
sg9
I300
sg10
I1
ssI4
(dp165
g8
F0.5
sg9
I300
sg10
I1
ssI5
(dp166
g8
F0.05
sg9
I300
sg10
I1
ssI6
(dp167
g8
g13
sg9
I300
sg10
I1
ssssg57
(dp168
g5
(dp169
g8
g13
sg9
I300
sg10
I1
sssS'cluster_index'
p170
(dp171
g5
(dp172
g8
F0.05
sg9
I300
sg10
I20
sssg118
(dp173
g5
(dp174
g8
F0.05
sg9
I300
sg10
I20
sssg121
(dp175
g5
(dp176
g8
g13
sg9
I300
sg10
I1
sssg124
(dp177
g5
(dp178
g8
F0.05
sg9
I300
sg10
I20
sssg83
(dp179
g5
(dp180
g8
F0.05
sg9
I300
sg10
I1
sssg60
(dp181
g5
(dp182
I1
(dp183
g8
F0.05
sg9
I300
sg10
I1
ssI2
(dp184
g8
F0.05
sg9
I300
sg10
I1
ssI3
(dp185
g8
F0.05
sg9
I300
sg10
I1
ssI4
(dp186
g8
F0.05
sg9
I300
sg10
I1
ssI5
(dp187
g8
F0.05
sg9
I300
sg10
I1
ssI6
(dp188
g8
F0.1
sg9
I300
sg10
I1
ssssS'state_index'
p189
(dp190
g5
(dp191
g8
g13
sg9
I300
sg10
I1
ssssS'bpic2015_1'
p192
(dp193
g3
(dp194
g5
(dp195
I1
(dp196
g8
F0.75
sg9
I300
sg10
I1
ssI2
(dp197
g8
F0.75
sg9
I300
sg10
I1
ssI3
(dp198
g8
F0.75
sg9
I300
sg10
I1
ssI4
(dp199
g8
F0.75
sg9
I300
sg10
I1
ssI5
(dp200
g8
F0.75
sg9
I300
sg10
I1
ssI6
(dp201
g8
F0.75
sg9
I300
sg10
I1
ssI7
(dp202
g8
F0.75
sg9
I300
sg10
I1
ssI8
(dp203
g8
F0.25
sg9
I300
sg10
I1
ssI9
(dp204
g8
F0.5
sg9
I300
sg10
I1
ssI10
(dp205
g8
F0.25
sg9
I300
sg10
I1
ssI11
(dp206
g8
F0.5
sg9
I300
sg10
I1
ssI12
(dp207
g8
F0.75
sg9
I300
sg10
I1
ssI13
(dp208
g8
F0.75
sg9
I300
sg10
I1
ssI14
(dp209
g8
F0.75
sg9
I300
sg10
I1
ssI15
(dp210
g8
F0.25
sg9
I300
sg10
I1
ssI16
(dp211
g8
F0.25
sg9
I300
sg10
I1
ssI17
(dp212
g8
F0.5
sg9
I300
sg10
I1
ssI18
(dp213
g8
F0.25
sg9
I300
sg10
I1
ssI19
(dp214
g8
F0.25
sg9
I300
sg10
I1
ssI20
(dp215
g8
F0.5
sg9
I300
sg10
I1
ssssg111
(dp216
g5
(dp217
g8
F0.5
sg9
I300
sg10
I2
sssg60
(dp218
g5
(dp219
I1
(dp220
g8
F0.25
sg9
I300
sg10
I1
ssI2
(dp221
g8
F0.5
sg9
I300
sg10
I1
ssI3
(dp222
g8
F0.25
sg9
I300
sg10
I1
ssI4
(dp223
g8
F0.5
sg9
I300
sg10
I1
ssI5
(dp224
g8
F0.75
sg9
I300
sg10
I1
ssI6
(dp225
g8
F0.75
sg9
I300
sg10
I1
ssI7
(dp226
g8
F0.25
sg9
I300
sg10
I1
ssI8
(dp227
g8
F0.25
sg9
I300
sg10
I1
ssI9
(dp228
g8
F0.25
sg9
I300
sg10
I1
ssI10
(dp229
g8
F0.25
sg9
I300
sg10
I1
ssI11
(dp230
g8
g13
sg9
I300
sg10
I1
ssI12
(dp231
g8
F0.75
sg9
I300
sg10
I1
ssI13
(dp232
g8
F0.75
sg9
I300
sg10
I1
ssI14
(dp233
g8
F0.75
sg9
I300
sg10
I1
ssI15
(dp234
g8
F0.75
sg9
I300
sg10
I1
ssI16
(dp235
g8
F0.75
sg9
I300
sg10
I1
ssI17
(dp236
g8
g13
sg9
I300
sg10
I1
ssI18
(dp237
g8
g13
sg9
I300
sg10
I1
ssI19
(dp238
g8
F0.05
sg9
I300
sg10
I1
ssI20
(dp239
g8
F0.1
sg9
I300
sg10
I1
ssssg31
(dp240
g5
(dp241
g8
F0.5
sg9
I300
sg10
I1
sssg34
(dp242
g5
(dp243
I1
(dp244
g8
F0.75
sg9
I300
sg10
I1
ssI2
(dp245
g8
F0.75
sg9
I300
sg10
I1
ssI3
(dp246
g8
F0.75
sg9
I300
sg10
I1
ssI4
(dp247
g8
F0.75
sg9
I300
sg10
I1
ssI5
(dp248
g8
F0.75
sg9
I300
sg10
I1
ssI6
(dp249
g8
F0.75
sg9
I300
sg10
I1
ssI7
(dp250
g8
F0.75
sg9
I300
sg10
I1
ssI8
(dp251
g8
F0.5
sg9
I300
sg10
I1
ssI9
(dp252
g8
F0.75
sg9
I300
sg10
I1
ssI10
(dp253
g8
F0.1
sg9
I300
sg10
I1
ssI11
(dp254
g8
F0.75
sg9
I300
sg10
I1
ssI12
(dp255
g8
F0.75
sg9
I300
sg10
I1
ssI13
(dp256
g8
F0.75
sg9
I300
sg10
I1
ssI14
(dp257
g8
F0.75
sg9
I300
sg10
I1
ssI15
(dp258
g8
F0.1
sg9
I300
sg10
I1
ssI16
(dp259
g8
F0.25
sg9
I300
sg10
I1
ssI17
(dp260
g8
F0.25
sg9
I300
sg10
I1
ssI18
(dp261
g8
F0.5
sg9
I300
sg10
I1
ssI19
(dp262
g8
F0.1
sg9
I300
sg10
I1
ssI20
(dp263
g8
F0.25
sg9
I300
sg10
I1
ssssg57
(dp264
g5
(dp265
g8
F0.75
sg9
I300
sg10
I1
sssg118
(dp266
g5
(dp267
g8
F0.5
sg9
I300
sg10
I2
sssg121
(dp268
g5
(dp269
g8
F0.5
sg9
I300
sg10
I1
sssg124
(dp270
g5
(dp271
g8
F0.25
sg9
I300
sg10
I2
sssg83
(dp272
g5
(dp273
g8
F0.25
sg9
I300
sg10
I1
sssg86
(dp274
g5
(dp275
I1
(dp276
g8
F0.25
sg9
I300
sg10
I1
ssI2
(dp277
g8
F0.5
sg9
I300
sg10
I1
ssI3
(dp278
g8
F0.5
sg9
I300
sg10
I1
ssI4
(dp279
g8
F0.5
sg9
I300
sg10
I1
ssI5
(dp280
g8
F0.5
sg9
I300
sg10
I1
ssI6
(dp281
g8
F0.25
sg9
I300
sg10
I1
ssI7
(dp282
g8
F0.1
sg9
I300
sg10
I1
ssI8
(dp283
g8
F0.25
sg9
I300
sg10
I1
ssI9
(dp284
g8
F0.25
sg9
I300
sg10
I1
ssI10
(dp285
g8
F0.1
sg9
I300
sg10
I1
ssI11
(dp286
g8
F0.75
sg9
I300
sg10
I1
ssI12
(dp287
g8
F0.75
sg9
I300
sg10
I1
ssI13
(dp288
g8
F0.1
sg9
I300
sg10
I1
ssI14
(dp289
g8
F0.75
sg9
I300
sg10
I1
ssI15
(dp290
g8
F0.5
sg9
I300
sg10
I1
ssI16
(dp291
g8
F0.75
sg9
I300
sg10
I1
ssI17
(dp292
g8
F0.25
sg9
I300
sg10
I1
ssI18
(dp293
g8
F0.5
sg9
I300
sg10
I1
ssI19
(dp294
g8
F0.5
sg9
I300
sg10
I1
ssI20
(dp295
g8
F0.5
sg9
I300
sg10
I1
sssssS'bpic2015_3'
p296
(dp297
g3
(dp298
g5
(dp299
I1
(dp300
g8
F0.25
sg9
I300
sg10
I1
ssI2
(dp301
g8
F0.1
sg9
I300
sg10
I1
ssI3
(dp302
g8
F0.25
sg9
I300
sg10
I1
ssI4
(dp303
g8
F0.5
sg9
I300
sg10
I1
ssI5
(dp304
g8
F0.25
sg9
I300
sg10
I1
ssI6
(dp305
g8
F0.5
sg9
I300
sg10
I1
ssI7
(dp306
g8
F0.5
sg9
I300
sg10
I1
ssI8
(dp307
g8
F0.5
sg9
I300
sg10
I1
ssI9
(dp308
g8
F0.25
sg9
I300
sg10
I1
ssI10
(dp309
g8
F0.1
sg9
I300
sg10
I1
ssI11
(dp310
g8
F0.25
sg9
I300
sg10
I1
ssI12
(dp311
g8
F0.25
sg9
I300
sg10
I1
ssI13
(dp312
g8
F0.25
sg9
I300
sg10
I1
ssI14
(dp313
g8
F0.25
sg9
I300
sg10
I1
ssI15
(dp314
g8
g13
sg9
I300
sg10
I1
ssI16
(dp315
g8
g13
sg9
I300
sg10
I1
ssI17
(dp316
g8
F0.05
sg9
I300
sg10
I1
ssI18
(dp317
g8
g13
sg9
I300
sg10
I1
ssI19
(dp318
g8
F0.1
sg9
I300
sg10
I1
ssI20
(dp319
g8
F0.1
sg9
I300
sg10
I1
ssssg111
(dp320
g5
(dp321
g8
F0.1
sg9
I300
sg10
I2
sssg60
(dp322
g5
(dp323
I1
(dp324
g8
F0.05
sg9
I300
sg10
I1
ssI2
(dp325
g8
g13
sg9
I300
sg10
I1
ssI3
(dp326
g8
F0.25
sg9
I300
sg10
I1
ssI4
(dp327
g8
F0.25
sg9
I300
sg10
I1
ssI5
(dp328
g8
F0.25
sg9
I300
sg10
I1
ssI6
(dp329
g8
F0.5
sg9
I300
sg10
I1
ssI7
(dp330
g8
F0.25
sg9
I300
sg10
I1
ssI8
(dp331
g8
F0.25
sg9
I300
sg10
I1
ssI9
(dp332
g8
F0.25
sg9
I300
sg10
I1
ssI10
(dp333
g8
F0.25
sg9
I300
sg10
I1
ssI11
(dp334
g8
F0.25
sg9
I300
sg10
I1
ssI12
(dp335
g8
F0.1
sg9
I300
sg10
I1
ssI13
(dp336
g8
F0.05
sg9
I300
sg10
I1
ssI14
(dp337
g8
F0.1
sg9
I300
sg10
I1
ssI15
(dp338
g8
F0.05
sg9
I300
sg10
I1
ssI16
(dp339
g8
F0.1
sg9
I300
sg10
I1
ssI17
(dp340
g8
g13
sg9
I300
sg10
I1
ssI18
(dp341
g8
F0.05
sg9
I300
sg10
I1
ssI19
(dp342
g8
g13
sg9
I300
sg10
I1
ssI20
(dp343
g8
g13
sg9
I300
sg10
I1
ssssg31
(dp344
g5
(dp345
g8
F0.1
sg9
I300
sg10
I1
sssg34
(dp346
g5
(dp347
I1
(dp348
g8
F0.1
sg9
I300
sg10
I1
ssI2
(dp349
g8
F0.25
sg9
I300
sg10
I1
ssI3
(dp350
g8
F0.5
sg9
I300
sg10
I1
ssI4
(dp351
g8
F0.25
sg9
I300
sg10
I1
ssI5
(dp352
g8
F0.25
sg9
I300
sg10
I1
ssI6
(dp353
g8
F0.5
sg9
I300
sg10
I1
ssI7
(dp354
g8
F0.75
sg9
I300
sg10
I1
ssI8
(dp355
g8
F0.5
sg9
I300
sg10
I1
ssI9
(dp356
g8
g13
sg9
I300
sg10
I1
ssI10
(dp357
g8
F0.25
sg9
I300
sg10
I1
ssI11
(dp358
g8
F0.1
sg9
I300
sg10
I1
ssI12
(dp359
g8
F0.1
sg9
I300
sg10
I1
ssI13
(dp360
g8
F0.1
sg9
I300
sg10
I1
ssI14
(dp361
g8
F0.1
sg9
I300
sg10
I1
ssI15
(dp362
g8
F0.05
sg9
I300
sg10
I1
ssI16
(dp363
g8
F0.1
sg9
I300
sg10
I1
ssI17
(dp364
g8
F0.1
sg9
I300
sg10
I1
ssI18
(dp365
g8
F0.1
sg9
I300
sg10
I1
ssI19
(dp366
g8
F0.05
sg9
I300
sg10
I1
ssI20
(dp367
g8
F0.1
sg9
I300
sg10
I1
ssssg57
(dp368
g5
(dp369
g8
F0.1
sg9
I300
sg10
I1
sssg118
(dp370
g5
(dp371
g8
F0.05
sg9
I300
sg10
I2
sssg121
(dp372
g5
(dp373
g8
F0.05
sg9
I300
sg10
I1
sssg124
(dp374
g5
(dp375
g8
F0.05
sg9
I300
sg10
I5
sssg83
(dp376
g5
(dp377
g8
g13
sg9
I300
sg10
I1
sssg86
(dp378
g5
(dp379
I1
(dp380
g8
F0.05
sg9
I300
sg10
I1
ssI2
(dp381
g8
g13
sg9
I300
sg10
I1
ssI3
(dp382
g8
F0.25
sg9
I300
sg10
I1
ssI4
(dp383
g8
g13
sg9
I300
sg10
I1
ssI5
(dp384
g8
F0.25
sg9
I300
sg10
I1
ssI6
(dp385
g8
F0.25
sg9
I300
sg10
I1
ssI7
(dp386
g8
g13
sg9
I300
sg10
I1
ssI8
(dp387
g8
g13
sg9
I300
sg10
I1
ssI9
(dp388
g8
F0.05
sg9
I300
sg10
I1
ssI10
(dp389
g8
g13
sg9
I300
sg10
I1
ssI11
(dp390
g8
g13
sg9
I300
sg10
I1
ssI12
(dp391
g8
g13
sg9
I300
sg10
I1
ssI13
(dp392
g8
g13
sg9
I300
sg10
I1
ssI14
(dp393
g8
F0.1
sg9
I300
sg10
I1
ssI15
(dp394
g8
g13
sg9
I300
sg10
I1
ssI16
(dp395
g8
F0.1
sg9
I300
sg10
I1
ssI17
(dp396
g8
F0.25
sg9
I300
sg10
I1
ssI18
(dp397
g8
F0.25
sg9
I300
sg10
I1
ssI19
(dp398
g8
F0.1
sg9
I300
sg10
I1
ssI20
(dp399
g8
g13
sg9
I300
sg10
I1
sssssS'bpic2015_2'
p400
(dp401
g3
(dp402
g5
(dp403
I1
(dp404
g8
F0.1
sg9
I300
sg10
I1
ssI2
(dp405
g8
F0.5
sg9
I300
sg10
I1
ssI3
(dp406
g8
F0.5
sg9
I300
sg10
I1
ssI4
(dp407
g8
F0.5
sg9
I300
sg10
I1
ssI5
(dp408
g8
F0.25
sg9
I300
sg10
I1
ssI6
(dp409
g8
F0.25
sg9
I300
sg10
I1
ssI7
(dp410
g8
F0.5
sg9
I300
sg10
I1
ssI8
(dp411
g8
F0.25
sg9
I300
sg10
I1
ssI9
(dp412
g8
F0.1
sg9
I300
sg10
I1
ssI10
(dp413
g8
F0.25
sg9
I300
sg10
I1
ssI11
(dp414
g8
F0.25
sg9
I300
sg10
I1
ssI12
(dp415
g8
g13
sg9
I300
sg10
I1
ssI13
(dp416
g8
F0.05
sg9
I300
sg10
I1
ssI14
(dp417
g8
F0.05
sg9
I300
sg10
I1
ssI15
(dp418
g8
F0.1
sg9
I300
sg10
I1
ssI16
(dp419
g8
F0.05
sg9
I300
sg10
I1
ssI17
(dp420
g8
g13
sg9
I300
sg10
I1
ssI18
(dp421
g8
F0.1
sg9
I300
sg10
I1
ssI19
(dp422
g8
F0.1
sg9
I300
sg10
I1
ssI20
(dp423
g8
F0.1
sg9
I300
sg10
I1
ssssg111
(dp424
g5
(dp425
g8
g13
sg9
I300
sg10
I2
sssg60
(dp426
g5
(dp427
I1
(dp428
g8
F0.25
sg9
I300
sg10
I1
ssI2
(dp429
g8
g13
sg9
I300
sg10
I1
ssI3
(dp430
g8
F0.25
sg9
I300
sg10
I1
ssI4
(dp431
g8
F0.25
sg9
I300
sg10
I1
ssI5
(dp432
g8
F0.25
sg9
I300
sg10
I1
ssI6
(dp433
g8
F0.25
sg9
I300
sg10
I1
ssI7
(dp434
g8
F0.25
sg9
I300
sg10
I1
ssI8
(dp435
g8
F0.25
sg9
I300
sg10
I1
ssI9
(dp436
g8
F0.25
sg9
I300
sg10
I1
ssI10
(dp437
g8
F0.25
sg9
I300
sg10
I1
ssI11
(dp438
g8
F0.25
sg9
I300
sg10
I1
ssI12
(dp439
g8
F0.05
sg9
I300
sg10
I1
ssI13
(dp440
g8
F0.1
sg9
I300
sg10
I1
ssI14
(dp441
g8
F0.5
sg9
I300
sg10
I1
ssI15
(dp442
g8
F0.05
sg9
I300
sg10
I1
ssI16
(dp443
g8
F0.25
sg9
I300
sg10
I1
ssI17
(dp444
g8
F0.25
sg9
I300
sg10
I1
ssI18
(dp445
g8
F0.05
sg9
I300
sg10
I1
ssI19
(dp446
g8
F0.05
sg9
I300
sg10
I1
ssI20
(dp447
g8
F0.05
sg9
I300
sg10
I1
ssssg31
(dp448
g5
(dp449
g8
F0.1
sg9
I300
sg10
I1
sssg34
(dp450
g5
(dp451
I1
(dp452
g8
g13
sg9
I300
sg10
I1
ssI2
(dp453
g8
F0.5
sg9
I300
sg10
I1
ssI3
(dp454
g8
F0.25
sg9
I300
sg10
I1
ssI4
(dp455
g8
F0.25
sg9
I300
sg10
I1
ssI5
(dp456
g8
F0.25
sg9
I300
sg10
I1
ssI6
(dp457
g8
F0.5
sg9
I300
sg10
I1
ssI7
(dp458
g8
F0.5
sg9
I300
sg10
I1
ssI8
(dp459
g8
F0.1
sg9
I300
sg10
I1
ssI9
(dp460
g8
F0.5
sg9
I300
sg10
I1
ssI10
(dp461
g8
F0.25
sg9
I300
sg10
I1
ssI11
(dp462
g8
F0.25
sg9
I300
sg10
I1
ssI12
(dp463
g8
F0.05
sg9
I300
sg10
I1
ssI13
(dp464
g8
F0.05
sg9
I300
sg10
I1
ssI14
(dp465
g8
g13
sg9
I300
sg10
I1
ssI15
(dp466
g8
F0.1
sg9
I300
sg10
I1
ssI16
(dp467
g8
g13
sg9
I300
sg10
I1
ssI17
(dp468
g8
F0.05
sg9
I300
sg10
I1
ssI18
(dp469
g8
F0.05
sg9
I300
sg10
I1
ssI19
(dp470
g8
g13
sg9
I300
sg10
I1
ssI20
(dp471
g8
g13
sg9
I300
sg10
I1
ssssg57
(dp472
g5
(dp473
g8
F0.1
sg9
I300
sg10
I1
sssg118
(dp474
g5
(dp475
g8
F0.1
sg9
I300
sg10
I2
sssg121
(dp476
g5
(dp477
g8
F0.05
sg9
I300
sg10
I1
sssg124
(dp478
g5
(dp479
g8
F0.05
sg9
I300
sg10
I2
sssg83
(dp480
g5
(dp481
g8
F0.05
sg9
I300
sg10
I1
sssg86
(dp482
g5
(dp483
I1
(dp484
g8
F0.25
sg9
I300
sg10
I1
ssI2
(dp485
g8
F0.05
sg9
I300
sg10
I1
ssI3
(dp486
g8
g13
sg9
I300
sg10
I1
ssI4
(dp487
g8
F0.1
sg9
I300
sg10
I1
ssI5
(dp488
g8
F0.25
sg9
I300
sg10
I1
ssI6
(dp489
g8
F0.1
sg9
I300
sg10
I1
ssI7
(dp490
g8
F0.1
sg9
I300
sg10
I1
ssI8
(dp491
g8
g13
sg9
I300
sg10
I1
ssI9
(dp492
g8
F0.25
sg9
I300
sg10
I1
ssI10
(dp493
g8
F0.25
sg9
I300
sg10
I1
ssI11
(dp494
g8
g13
sg9
I300
sg10
I1
ssI12
(dp495
g8
F0.25
sg9
I300
sg10
I1
ssI13
(dp496
g8
F0.1
sg9
I300
sg10
I1
ssI14
(dp497
g8
F0.25
sg9
I300
sg10
I1
ssI15
(dp498
g8
F0.25
sg9
I300
sg10
I1
ssI16
(dp499
g8
F0.25
sg9
I300
sg10
I1
ssI17
(dp500
g8
F0.25
sg9
I300
sg10
I1
ssI18
(dp501
g8
F0.1
sg9
I300
sg10
I1
ssI19
(dp502
g8
F0.05
sg9
I300
sg10
I1
ssI20
(dp503
g8
F0.05
sg9
I300
sg10
I1
sssssS'bpic2015_5'
p504
(dp505
g3
(dp506
g5
(dp507
I1
(dp508
g8
F0.25
sg9
I300
sg10
I1
ssI2
(dp509
g8
F0.5
sg9
I300
sg10
I1
ssI3
(dp510
g8
F0.25
sg9
I300
sg10
I1
ssI4
(dp511
g8
F0.25
sg9
I300
sg10
I1
ssI5
(dp512
g8
F0.25
sg9
I300
sg10
I1
ssI6
(dp513
g8
F0.25
sg9
I300
sg10
I1
ssI7
(dp514
g8
F0.75
sg9
I300
sg10
I1
ssI8
(dp515
g8
F0.25
sg9
I300
sg10
I1
ssI9
(dp516
g8
F0.5
sg9
I300
sg10
I1
ssI10
(dp517
g8
F0.75
sg9
I300
sg10
I1
ssI11
(dp518
g8
F0.25
sg9
I300
sg10
I1
ssI12
(dp519
g8
F0.25
sg9
I300
sg10
I1
ssI13
(dp520
g8
F0.5
sg9
I300
sg10
I1
ssI14
(dp521
g8
F0.5
sg9
I300
sg10
I1
ssI15
(dp522
g8
F0.25
sg9
I300
sg10
I1
ssI16
(dp523
g8
F0.1
sg9
I300
sg10
I1
ssI17
(dp524
g8
g13
sg9
I300
sg10
I1
ssI18
(dp525
g8
g13
sg9
I300
sg10
I1
ssI19
(dp526
g8
F0.05
sg9
I300
sg10
I1
ssI20
(dp527
g8
F0.05
sg9
I300
sg10
I1
ssssg111
(dp528
g5
(dp529
g8
F0.1
sg9
I300
sg10
I2
sssg60
(dp530
g5
(dp531
I1
(dp532
g8
F0.1
sg9
I300
sg10
I1
ssI2
(dp533
g8
F0.25
sg9
I300
sg10
I1
ssI3
(dp534
g8
F0.1
sg9
I300
sg10
I1
ssI4
(dp535
g8
F0.1
sg9
I300
sg10
I1
ssI5
(dp536
g8
F0.25
sg9
I300
sg10
I1
ssI6
(dp537
g8
F0.25
sg9
I300
sg10
I1
ssI7
(dp538
g8
F0.5
sg9
I300
sg10
I1
ssI8
(dp539
g8
F0.25
sg9
I300
sg10
I1
ssI9
(dp540
g8
F0.25
sg9
I300
sg10
I1
ssI10
(dp541
g8
F0.25
sg9
I300
sg10
I1
ssI11
(dp542
g8
F0.25
sg9
I300
sg10
I1
ssI12
(dp543
g8
F0.1
sg9
I300
sg10
I1
ssI13
(dp544
g8
F0.25
sg9
I300
sg10
I1
ssI14
(dp545
g8
F0.05
sg9
I300
sg10
I1
ssI15
(dp546
g8
g13
sg9
I300
sg10
I1
ssI16
(dp547
g8
F0.1
sg9
I300
sg10
I1
ssI17
(dp548
g8
F0.05
sg9
I300
sg10
I1
ssI18
(dp549
g8
F0.1
sg9
I300
sg10
I1
ssI19
(dp550
g8
F0.05
sg9
I300
sg10
I1
ssI20
(dp551
g8
F0.05
sg9
I300
sg10
I1
ssssg31
(dp552
g5
(dp553
g8
F0.1
sg9
I300
sg10
I1
sssg34
(dp554
g5
(dp555
I1
(dp556
g8
F0.25
sg9
I300
sg10
I1
ssI2
(dp557
g8
F0.25
sg9
I300
sg10
I1
ssI3
(dp558
g8
F0.25
sg9
I300
sg10
I1
ssI4
(dp559
g8
F0.25
sg9
I300
sg10
I1
ssI5
(dp560
g8
F0.25
sg9
I300
sg10
I1
ssI6
(dp561
g8
F0.25
sg9
I300
sg10
I1
ssI7
(dp562
g8
F0.5
sg9
I300
sg10
I1
ssI8
(dp563
g8
F0.25
sg9
I300
sg10
I1
ssI9
(dp564
g8
F0.5
sg9
I300
sg10
I1
ssI10
(dp565
g8
F0.25
sg9
I300
sg10
I1
ssI11
(dp566
g8
F0.25
sg9
I300
sg10
I1
ssI12
(dp567
g8
F0.25
sg9
I300
sg10
I1
ssI13
(dp568
g8
F0.75
sg9
I300
sg10
I1
ssI14
(dp569
g8
F0.1
sg9
I300
sg10
I1
ssI15
(dp570
g8
F0.1
sg9
I300
sg10
I1
ssI16
(dp571
g8
F0.1
sg9
I300
sg10
I1
ssI17
(dp572
g8
g13
sg9
I300
sg10
I1
ssI18
(dp573
g8
F0.05
sg9
I300
sg10
I1
ssI19
(dp574
g8
F0.05
sg9
I300
sg10
I1
ssI20
(dp575
g8
g13
sg9
I300
sg10
I1
ssssg57
(dp576
g5
(dp577
g8
g13
sg9
I300
sg10
I1
sssg118
(dp578
g5
(dp579
g8
F0.1
sg9
I300
sg10
I2
sssg121
(dp580
g5
(dp581
g8
g13
sg9
I300
sg10
I1
sssg124
(dp582
g5
(dp583
g8
F0.05
sg9
I300
sg10
I2
sssg83
(dp584
g5
(dp585
g8
F0.05
sg9
I300
sg10
I1
sssg86
(dp586
g5
(dp587
I1
(dp588
g8
F0.1
sg9
I300
sg10
I1
ssI2
(dp589
g8
g13
sg9
I300
sg10
I1
ssI3
(dp590
g8
F0.1
sg9
I300
sg10
I1
ssI4
(dp591
g8
F0.25
sg9
I300
sg10
I1
ssI5
(dp592
g8
g13
sg9
I300
sg10
I1
ssI6
(dp593
g8
F0.25
sg9
I300
sg10
I1
ssI7
(dp594
g8
F0.25
sg9
I300
sg10
I1
ssI8
(dp595
g8
F0.25
sg9
I300
sg10
I1
ssI9
(dp596
g8
g13
sg9
I300
sg10
I1
ssI10
(dp597
g8
F0.25
sg9
I300
sg10
I1
ssI11
(dp598
g8
F0.25
sg9
I300
sg10
I1
ssI12
(dp599
g8
F0.25
sg9
I300
sg10
I1
ssI13
(dp600
g8
g13
sg9
I300
sg10
I1
ssI14
(dp601
g8
F0.1
sg9
I300
sg10
I1
ssI15
(dp602
g8
F0.1
sg9
I300
sg10
I1
ssI16
(dp603
g8
F0.75
sg9
I300
sg10
I1
ssI17
(dp604
g8
g13
sg9
I300
sg10
I1
ssI18
(dp605
g8
g13
sg9
I300
sg10
I1
ssI19
(dp606
g8
F0.5
sg9
I300
sg10
I1
ssI20
(dp607
g8
F0.25
sg9
I300
sg10
I1
sssssS'bpic2015_4'
p608
(dp609
g131
(dp610
g5
(dp611
g8
F0.75
sg9
I300
sg10
I1
sssg111
(dp612
g5
(dp613
g8
F0.25
sg9
I300
sg10
I10
sssg3
(dp614
g5
(dp615
I1
(dp616
g8
F0.1
sg9
I300
sg10
I1
ssI2
(dp617
g8
F0.25
sg9
I300
sg10
I1
ssI3
(dp618
g8
g13
sg9
I300
sg10
I1
ssI4
(dp619
g8
g13
sg9
I300
sg10
I1
ssI5
(dp620
g8
F0.25
sg9
I300
sg10
I1
ssI6
(dp621
g8
F0.25
sg9
I300
sg10
I1
ssI7
(dp622
g8
g13
sg9
I300
sg10
I1
ssI8
(dp623
g8
F0.25
sg9
I300
sg10
I1
ssI9
(dp624
g8
F0.25
sg9
I300
sg10
I1
ssI10
(dp625
g8
F0.75
sg9
I300
sg10
I1
ssI11
(dp626
g8
F0.5
sg9
I300
sg10
I1
ssI12
(dp627
g8
F0.75
sg9
I300
sg10
I1
ssI13
(dp628
g8
g13
sg9
I300
sg10
I1
ssI14
(dp629
g8
F0.5
sg9
I300
sg10
I1
ssI15
(dp630
g8
F0.5
sg9
I300
sg10
I1
ssI16
(dp631
g8
F0.75
sg9
I300
sg10
I1
ssI17
(dp632
g8
F0.75
sg9
I300
sg10
I1
ssI18
(dp633
g8
F0.5
sg9
I300
sg10
I1
ssI19
(dp634
g8
F0.5
sg9
I300
sg10
I1
ssI20
(dp635
g8
F0.25
sg9
I300
sg10
I1
ssssg60
(dp636
g5
(dp637
I1
(dp638
g8
g13
sg9
I300
sg10
I1
ssI2
(dp639
g8
F0.1
sg9
I300
sg10
I1
ssI3
(dp640
g8
g13
sg9
I300
sg10
I1
ssI4
(dp641
g8
F0.05
sg9
I300
sg10
I1
ssI5
(dp642
g8
F0.1
sg9
I300
sg10
I1
ssI6
(dp643
g8
g13
sg9
I300
sg10
I1
ssI7
(dp644
g8
F0.25
sg9
I300
sg10
I1
ssI8
(dp645
g8
F0.25
sg9
I300
sg10
I1
ssI9
(dp646
g8
F0.25
sg9
I300
sg10
I1
ssI10
(dp647
g8
F0.1
sg9
I300
sg10
I1
ssI11
(dp648
g8
F0.25
sg9
I300
sg10
I1
ssI12
(dp649
g8
F0.25
sg9
I300
sg10
I1
ssI13
(dp650
g8
F0.75
sg9
I300
sg10
I1
ssI14
(dp651
g8
F0.75
sg9
I300
sg10
I1
ssI15
(dp652
g8
F0.5
sg9
I300
sg10
I1
ssI16
(dp653
g8
F0.75
sg9
I300
sg10
I1
ssI17
(dp654
g8
F0.75
sg9
I300
sg10
I1
ssI18
(dp655
g8
F0.75
sg9
I300
sg10
I1
ssI19
(dp656
g8
F0.75
sg9
I300
sg10
I1
ssI20
(dp657
g8
F0.5
sg9
I300
sg10
I1
ssssg31
(dp658
g5
(dp659
g8
F0.1
sg9
I300
sg10
I1
sssg34
(dp660
g5
(dp661
I1
(dp662
g8
g13
sg9
I300
sg10
I1
ssI2
(dp663
g8
F0.1
sg9
I300
sg10
I1
ssI3
(dp664
g8
F0.25
sg9
I300
sg10
I1
ssI4
(dp665
g8
F0.05
sg9
I300
sg10
I1
ssI5
(dp666
g8
F0.25
sg9
I300
sg10
I1
ssI6
(dp667
g8
g13
sg9
I300
sg10
I1
ssI7
(dp668
g8
F0.5
sg9
I300
sg10
I1
ssI8
(dp669
g8
g13
sg9
I300
sg10
I1
ssI9
(dp670
g8
F0.25
sg9
I300
sg10
I1
ssI10
(dp671
g8
F0.25
sg9
I300
sg10
I1
ssI11
(dp672
g8
F0.25
sg9
I300
sg10
I1
ssI12
(dp673
g8
F0.75
sg9
I300
sg10
I1
ssI13
(dp674
g8
F0.25
sg9
I300
sg10
I1
ssI14
(dp675
g8
F0.5
sg9
I300
sg10
I1
ssI15
(dp676
g8
F0.5
sg9
I300
sg10
I1
ssI16
(dp677
g8
F0.5
sg9
I300
sg10
I1
ssI17
(dp678
g8
F0.75
sg9
I300
sg10
I1
ssI18
(dp679
g8
F0.25
sg9
I300
sg10
I1
ssI19
(dp680
g8
F0.75
sg9
I300
sg10
I1
ssI20
(dp681
g8
F0.25
sg9
I300
sg10
I1
ssssg57
(dp682
g5
(dp683
g8
F0.05
sg9
I300
sg10
I1
sssg118
(dp684
g5
(dp685
g8
F0.25
sg9
I300
sg10
I10
sssg121
(dp686
g5
(dp687
g8
F0.05
sg9
I300
sg10
I1
sssg124
(dp688
g5
(dp689
g8
F0.25
sg9
I300
sg10
I20
sssg83
(dp690
g5
(dp691
g8
F0.05
sg9
I300
sg10
I1
sssg86
(dp692
g5
(dp693
I1
(dp694
g8
g13
sg9
I300
sg10
I1
ssI2
(dp695
g8
F0.25
sg9
I300
sg10
I1
ssI3
(dp696
g8
F0.1
sg9
I300
sg10
I1
ssI4
(dp697
g8
F0.1
sg9
I300
sg10
I1
ssI5
(dp698
g8
F0.25
sg9
I300
sg10
I1
ssI6
(dp699
g8
F0.25
sg9
I300
sg10
I1
ssI7
(dp700
g8
F0.25
sg9
I300
sg10
I1
ssI8
(dp701
g8
F0.25
sg9
I300
sg10
I1
ssI9
(dp702
g8
F0.25
sg9
I300
sg10
I1
ssI10
(dp703
g8
F0.1
sg9
I300
sg10
I1
ssI11
(dp704
g8
F0.5
sg9
I300
sg10
I1
ssI12
(dp705
g8
F0.75
sg9
I300
sg10
I1
ssI13
(dp706
g8
F0.25
sg9
I300
sg10
I1
ssI14
(dp707
g8
F0.25
sg9
I300
sg10
I1
ssI15
(dp708
g8
F0.5
sg9
I300
sg10
I1
ssI16
(dp709
g8
F0.75
sg9
I300
sg10
I1
ssI17
(dp710
g8
F0.75
sg9
I300
sg10
I1
ssI18
(dp711
g8
F0.25
sg9
I300
sg10
I1
ssI19
(dp712
g8
F0.75
sg9
I300
sg10
I1
ssI20
(dp713
g8
F0.5
sg9
I300
sg10
I1
sssssS'traffic_fines'
p714
(dp715
g121
(dp716
g5
(dp717
g8
F0.25
sg9
I300
sg10
I1
ssss.